EXPORTS
 "EvalADFunObject"
 "EvalDoubleFunObject"
 "FreeADFunObject"
 "InfoADFunObject"
 "MakeADFunObject"
 "MakeADGradObject"
 "MakeADHessObject2"
 "MakeDoubleFunObject"
 "R_init_SEBDAM"
 "Rcerr"
 "Rcout"
 "TMBconfig"
 "_Z11IndependentN8tmbutils6vectorIdEE"
 "_Z12optimizeTapeIPN5CppAD5ADFunIdEEEvT_"
 "_Z13dbinom_robustIN5CppAD2ADINS1_INS1_IdEEEEEEET_S5_S5_S5_i"
 "_Z13dbinom_robustIN5CppAD2ADINS1_IdEEEEET_S4_S4_S4_i"
 "_Z13dbinom_robustIN5CppAD2ADIdEEET_S3_S3_S3_i"
 "_Z13dbinom_robustIdET_S0_S0_S0_i"
 "_Z14eigen_REprintfPKc"
 "_Z14getListElementP7SEXPRECPKcPF8RbooleanS0_E"
 "_Z14getListIntegerP7SEXPRECPKci"
 "_Z15isNumericScalarP7SEXPREC"
 "_Z16MakeADFunObject_P7SEXPRECS0_S0_S0_iRS0_"
 "_Z17MakeADGradObject_P7SEXPRECS0_S0_i"
 "_Z18MakeADHessObject2_P7SEXPRECS0_S0_S0_i"
 "_Z19isValidSparseMatrixP7SEXPREC"
 "_Z22HessianSparsityPatternIdEN8tmbutils6matrixIiEEPN5CppAD5ADFunIT_EE"
 "_Z23EvalADFunObjectTemplateI13parallelADFunIdEEP7SEXPRECS3_S3_S3_"
 "_Z23EvalADFunObjectTemplateIN5CppAD5ADFunIdEEEP7SEXPRECS4_S4_S4_"
 "_Z23RObjectTestExpectedTypeP7SEXPRECPF8RbooleanS0_EPKc"
 "_Z3expIN5CppAD2ADINS1_INS1_IdEEEEEEEN8tmbutils6vectorIT_EERKS8_"
 "_Z3expIN5CppAD2ADINS1_IdEEEEEN8tmbutils6vectorIT_EERKS7_"
 "_Z3expIN5CppAD2ADIdEEEN8tmbutils6vectorIT_EERKS6_"
 "_Z3expIdEN8tmbutils6vectorIT_EERKS3_"
 "_Z3logIdEN8tmbutils6vectorIT_EERKS3_"
 "_Z3tlmIN5CppAD2ADINS1_INS1_IdEEEEEEET_P18objective_functionIS5_E"
 "_Z3tlmIN5CppAD2ADINS1_IdEEEEET_P18objective_functionIS4_E"
 "_Z3tlmIN5CppAD2ADIdEEET_P18objective_functionIS3_E"
 "_Z3tlmIdET_P18objective_functionIS0_E"
 "_Z5dbetaIN5CppAD2ADINS1_INS1_IdEEEEEEET_S5_S5_S5_i"
 "_Z5dbetaIN5CppAD2ADINS1_IdEEEEET_S4_S4_S4_i"
 "_Z5dbetaIN5CppAD2ADIdEEET_S3_S3_S3_i"
 "_Z5dbetaIdET_S0_S0_S0_i"
 "_Z5dnormIN5CppAD2ADINS1_INS1_IdEEEEEEET_S5_S5_S5_i"
 "_Z5dnormIN5CppAD2ADINS1_IdEEEEET_S4_S4_S4_i"
 "_Z5dnormIN5CppAD2ADIdEEET_S3_S3_S3_i"
 "_Z5logitIN5CppAD2ADINS1_INS1_IdEEEEEEET_S5_"
 "_Z5logitIN5CppAD2ADINS1_IdEEEEET_S4_"
 "_Z5logitIN5CppAD2ADIdEEET_S3_"
 "_Z6asSEXPIN5CppAD5ADFunIdEEEP7SEXPRECRK8sphess_tIT_EPKc"
 "_Z6asSEXPIdEP7SEXPRECN5Eigen12SparseMatrixIT_Li0EiEE"
 "_Z6asSEXPIdEP7SEXPRECRKN8tmbutils5arrayIT_EE"
 "_Z6asSEXPIdEP7SEXPRECRKN8tmbutils6matrixIT_EE"
 "_Z6asSEXPIiEP7SEXPRECRKN8tmbutils6matrixIT_EE"
 "_Z6asSEXPRKN8tmbutils6vectorIdEE"
 "_Z6asSEXPRKN8tmbutils6vectorIiEE"
 "_Z6asSEXPRKd"
 "_Z6asSEXPRKi"
 "_Z6dbinomIN5CppAD2ADINS1_INS1_IdEEEEEEET_S5_S5_S5_i"
 "_Z6dbinomIN5CppAD2ADINS1_IdEEEEET_S4_S4_S4_i"
 "_Z6dbinomIN5CppAD2ADIdEEET_S3_S3_S3_i"
 "_Z6lgammaIN5CppAD2ADINS1_INS1_IdEEEEEEET_S5_"
 "_Z6lgammaIN5CppAD2ADINS1_IdEEEEET_S4_"
 "_Z6lgammaIN5CppAD2ADIdEEET_S3_"
 "_Z6sebdamIN5CppAD2ADINS1_INS1_IdEEEEEEET_P18objective_functionIS5_E"
 "_Z6sebdamIN5CppAD2ADINS1_IdEEEEET_P18objective_functionIS4_E"
 "_Z6sebdamIN5CppAD2ADIdEEET_P18objective_functionIS3_E"
 "_Z6sebdamIdET_P18objective_functionIS0_E"
 "_Z7ptrListP7SEXPREC"
 "_Z8asDoubleN5CppAD2ADINS0_INS0_IdEEEEEE"
 "_Z8asDoubleN5CppAD2ADINS0_IdEEEE"
 "_Z8asDoubleN5CppAD2ADIdEE"
 "_Z8asDoubled"
 "_Z8asDoublei"
 "_Z8asMatrixIN5CppAD2ADINS1_INS1_IdEEEEEEEN8tmbutils6matrixIT_EEP7SEXPREC"
 "_Z8asMatrixIN5CppAD2ADINS1_IdEEEEEN8tmbutils6matrixIT_EEP7SEXPREC"
 "_Z8asMatrixIN5CppAD2ADIdEEEN8tmbutils6matrixIT_EEP7SEXPREC"
 "_Z8asMatrixIdEN8tmbutils6matrixIT_EEP7SEXPREC"
 "_Z8asMatrixIdEN8tmbutils6matrixIT_EERKNS0_6vectorIS2_EEii"
 "_Z8asMatrixIiEN8tmbutils6matrixIT_EEP7SEXPREC"
 "_Z8asMatrixIiEN8tmbutils6matrixIT_EERKNS0_6vectorIS2_EEii"
 "_Z8asVectorIN5CppAD2ADINS1_INS1_IdEEEEEEEN8tmbutils6vectorIT_EEP7SEXPREC"
 "_Z8asVectorIN5CppAD2ADINS1_IdEEEEEN8tmbutils6vectorIT_EEP7SEXPREC"
 "_Z8asVectorIN5CppAD2ADIdEEEN8tmbutils6vectorIT_EEP7SEXPREC"
 "_Z8asVectorIdEN8tmbutils6vectorIT_EEP7SEXPREC"
 "_Z8asVectorIiEN8tmbutils6vectorIT_EEP7SEXPREC"
 "_Z8create_HIN5CppAD2ADINS1_INS1_IdEEEEEEEN8tmbutils6matrixIT_EENS5_6vectorIS7_EE"
 "_Z8create_HIN5CppAD2ADINS1_IdEEEEEN8tmbutils6matrixIT_EENS4_6vectorIS6_EE"
 "_Z8create_HIN5CppAD2ADIdEEEN8tmbutils6matrixIT_EENS3_6vectorIS5_EE"
 "_Z8create_HIdEN8tmbutils6matrixIT_EENS0_6vectorIS2_EE"
 "_Z8invlogitIN5CppAD2ADINS1_INS1_IdEEEEEEET_S5_"
 "_Z8invlogitIN5CppAD2ADINS1_IdEEEEET_S4_"
 "_Z8invlogitIN5CppAD2ADIdEEET_S3_"
 "_ZGVZN5CppAD11atomic_baseINS_2ADINS1_IdEEEEE10class_nameB5cxx11EvE5list_"
 "_ZGVZN5CppAD11atomic_baseINS_2ADINS1_IdEEEEE12class_objectEvE5list_"
 "_ZGVZN5CppAD11atomic_baseINS_2ADIdEEE10class_nameB5cxx11EvE5list_"
 "_ZGVZN5CppAD11atomic_baseINS_2ADIdEEE12class_objectEvE5list_"
 "_ZGVZN5CppAD11atomic_baseIdE10class_nameB5cxx11EvE5list_"
 "_ZGVZN5CppAD11atomic_baseIdE12class_objectEvE5list_"
 "_ZGVZN5CppAD12thread_alloc11thread_infoEybE9zero_info"
 "_ZGVZN5CppAD12thread_alloc13capacity_infoEvE8capacity"
 "_ZGVZN5CppAD2ADINS0_INS0_IdEEEEE11tape_manageENS_15tape_manage_jobEE9tape_zero"
 "_ZGVZN5CppAD2ADINS0_IdEEE11tape_manageENS_15tape_manage_jobEE9tape_zero"
 "_ZGVZN5CppAD2ADIdE11tape_manageENS_15tape_manage_jobEE9tape_zero"
 "_ZGVZN5CppAD8discreteINS_2ADINS1_IdEEEEE4ListEvE4list"
 "_ZGVZN5CppAD8discreteINS_2ADIdEEE4ListEvE4list"
 "_ZGVZN5CppAD8discreteIdE4ListEvE4list"
 "_ZGVZN5Eigen8internal20manage_caching_sizesENS_6ActionEPxS2_S2_E12m_cacheSizes"
 "_ZGVZN6atomic17log_dbinom_robustIN5CppAD2ADINS2_IdEEEEEEvRKNS1_6vectorINS2_IT_EEEERS8_E21afunlog_dbinom_robust"
 "_ZGVZN6atomic17log_dbinom_robustIN5CppAD2ADIdEEEEvRKNS1_6vectorINS2_IT_EEEERS7_E21afunlog_dbinom_robust"
 "_ZGVZN6atomic17log_dbinom_robustIdEEvRKN5CppAD6vectorINS1_2ADIT_EEEERS6_E21afunlog_dbinom_robust"
 "_ZGVZN6atomic8D_lgammaIN5CppAD2ADINS2_IdEEEEEEvRKNS1_6vectorINS2_IT_EEEERS8_E12afunD_lgamma"
 "_ZGVZN6atomic8D_lgammaIN5CppAD2ADIdEEEEvRKNS1_6vectorINS2_IT_EEEERS7_E12afunD_lgamma"
 "_ZGVZN6atomic8D_lgammaIdEEvRKN5CppAD6vectorINS1_2ADIT_EEEERS6_E12afunD_lgamma"
 "_ZN10RstreambufILb0EE4syncEv"
 "_ZN10RstreambufILb0EE6xsputnEPKcx"
 "_ZN10RstreambufILb0EE8overflowEi"
 "_ZN10RstreambufILb0EED0Ev"
 "_ZN10RstreambufILb0EED1Ev"
 "_ZN10RstreambufILb1EE4syncEv"
 "_ZN10RstreambufILb1EE6xsputnEPKcx"
 "_ZN10RstreambufILb1EE8overflowEi"
 "_ZN10RstreambufILb1EED0Ev"
 "_ZN10RstreambufILb1EED1Ev"
 "_ZN12report_stackIN5CppAD2ADINS1_INS1_IdEEEEEEE4pushES4_PKc"
 "_ZN12report_stackIN5CppAD2ADINS1_INS1_IdEEEEEEE4pushIN8tmbutils5arrayIS4_EEEEvT_PKc"
 "_ZN12report_stackIN5CppAD2ADINS1_INS1_IdEEEEEEE4pushIN8tmbutils6matrixIS4_EEEEvT_PKc"
 "_ZN12report_stackIN5CppAD2ADINS1_INS1_IdEEEEEEE4pushIN8tmbutils6vectorIS4_EEEEvT_PKc"
 "_ZN12report_stackIN5CppAD2ADINS1_INS1_IdEEEEEEE8increaseEN8tmbutils6vectorIiEEPKc"
 "_ZN12report_stackIN5CppAD2ADINS1_IdEEEEE4pushES3_PKc"
 "_ZN12report_stackIN5CppAD2ADINS1_IdEEEEE4pushIN8tmbutils5arrayIS3_EEEEvT_PKc"
 "_ZN12report_stackIN5CppAD2ADINS1_IdEEEEE4pushIN8tmbutils6matrixIS3_EEEEvT_PKc"
 "_ZN12report_stackIN5CppAD2ADINS1_IdEEEEE4pushIN8tmbutils6vectorIS3_EEEEvT_PKc"
 "_ZN12report_stackIN5CppAD2ADINS1_IdEEEEE8increaseEN8tmbutils6vectorIiEEPKc"
 "_ZN12report_stackIN5CppAD2ADIdEEE4pushES2_PKc"
 "_ZN12report_stackIN5CppAD2ADIdEEE4pushIN8tmbutils5arrayIS2_EEEEvT_PKc"
 "_ZN12report_stackIN5CppAD2ADIdEEE4pushIN8tmbutils6matrixIS2_EEEEvT_PKc"
 "_ZN12report_stackIN5CppAD2ADIdEEE4pushIN8tmbutils6vectorIS2_EEEEvT_PKc"
 "_ZN12report_stackIN5CppAD2ADIdEEE8increaseEN8tmbutils6vectorIiEEPKc"
 "_ZN12report_stackIdE4pushEdPKc"
 "_ZN12report_stackIdE4pushIN8tmbutils5arrayIdEEEEvT_PKc"
 "_ZN12report_stackIdE4pushIN8tmbutils6matrixIdEEEEvT_PKc"
 "_ZN12report_stackIdE4pushIN8tmbutils6vectorIdEEEEvT_PKc"
 "_ZN12report_stackIdE8increaseEN8tmbutils6vectorIiEEPKc"
 "_ZN13config_struct3setEPKcRbb"
 "_ZN13config_struct3setEv"
 "_ZN13parallelADFunIdE7ForwardIN8tmbutils6vectorIdEEEET_yRKS5_RSo"
 "_ZN13parallelADFunIdE7ReverseIN8tmbutils6vectorIdEEEET_yRKS5_"
 "_ZN14data_indicatorIN8tmbutils6vectorIN5CppAD2ADINS3_INS3_IdEEEEEEEES6_E4fillES7_"
 "_ZN14data_indicatorIN8tmbutils6vectorIN5CppAD2ADINS3_INS3_IdEEEEEEEES6_EC1ES7_b"
 "_ZN14data_indicatorIN8tmbutils6vectorIN5CppAD2ADINS3_INS3_IdEEEEEEEES6_ED1Ev"
 "_ZN14data_indicatorIN8tmbutils6vectorIN5CppAD2ADINS3_IdEEEEEES5_E4fillES6_"
 "_ZN14data_indicatorIN8tmbutils6vectorIN5CppAD2ADINS3_IdEEEEEES5_EC1ES6_b"
 "_ZN14data_indicatorIN8tmbutils6vectorIN5CppAD2ADINS3_IdEEEEEES5_ED1Ev"
 "_ZN14data_indicatorIN8tmbutils6vectorIN5CppAD2ADIdEEEES4_E4fillES5_"
 "_ZN14data_indicatorIN8tmbutils6vectorIN5CppAD2ADIdEEEES4_EC1ES5_b"
 "_ZN14data_indicatorIN8tmbutils6vectorIN5CppAD2ADIdEEEES4_ED1Ev"
 "_ZN14data_indicatorIN8tmbutils6vectorIdEEdE4fillES2_"
 "_ZN14data_indicatorIN8tmbutils6vectorIdEEdEC1ES2_b"
 "_ZN14data_indicatorIN8tmbutils6vectorIdEEdED1Ev"
 "_ZN18objective_functionIN5CppAD2ADINS1_INS1_IdEEEEEEE9fillShapeIN8tmbutils5arrayIS4_EEEET_SA_PKc"
 "_ZN18objective_functionIN5CppAD2ADINS1_INS1_IdEEEEEEE9fillShapeIN8tmbutils6vectorIS4_EEEET_SA_PKc"
 "_ZN18objective_functionIN5CppAD2ADINS1_INS1_IdEEEEEEEclEv"
 "_ZN18objective_functionIN5CppAD2ADINS1_IdEEEEE9fillShapeIN8tmbutils5arrayIS3_EEEET_S9_PKc"
 "_ZN18objective_functionIN5CppAD2ADINS1_IdEEEEE9fillShapeIN8tmbutils6vectorIS3_EEEET_S9_PKc"
 "_ZN18objective_functionIN5CppAD2ADINS1_IdEEEEEclEv"
 "_ZN18objective_functionIN5CppAD2ADIdEEE9fillShapeIN8tmbutils5arrayIS2_EEEET_S8_PKc"
 "_ZN18objective_functionIN5CppAD2ADIdEEE9fillShapeIN8tmbutils6vectorIS2_EEEET_S8_PKc"
 "_ZN18objective_functionIN5CppAD2ADIdEEEclEv"
 "_ZN18objective_functionIdE9fillShapeIN8tmbutils5arrayIdEEEET_S5_PKc"
 "_ZN18objective_functionIdE9fillShapeIN8tmbutils6vectorIdEEEET_S5_PKc"
 "_ZN18objective_functionIdEC1EP7SEXPRECS2_S2_"
 "_ZN18objective_functionIdED1Ev"
 "_ZN18objective_functionIdEclEv"
 "_ZN21memory_manager_struct14CallCFinalizerEP7SEXPREC"
 "_ZN21memory_manager_struct18RegisterCFinalizerEP7SEXPREC"
 "_ZN21memory_manager_struct5clearEv"
 "_ZN21memory_manager_structC1Ev"
 "_ZN21memory_manager_structC2Ev"
 "_ZN5CppAD10index_sortINS_6vectorIyEES2_EEvRKT_RT0_"
 "_ZN5CppAD10pod_vectorIbE6extendEy"
 "_ZN5CppAD10pod_vectorIhE6extendEy"
 "_ZN5CppAD10pod_vectorIjE6extendEy"
 "_ZN5CppAD10pod_vectorIyE6extendEy"
 "_ZN5CppAD11ForJacSweepIdNS_11sparse_packEEEvyyPNS_6playerIT_EERT0_"
 "_ZN5CppAD11JacobianForINS_2ADINS1_IdEEEEN8tmbutils6vectorIS3_EEEEvRNS_5ADFunIT_EERKT0_RSB_"
 "_ZN5CppAD11JacobianForINS_2ADIdEEN8tmbutils6vectorIS2_EEEEvRNS_5ADFunIT_EERKT0_RSA_"
 "_ZN5CppAD11JacobianRevINS_2ADINS1_IdEEEEN8tmbutils6vectorIS3_EEEEvRNS_5ADFunIT_EERKT0_RSB_"
 "_ZN5CppAD11JacobianRevINS_2ADIdEEN8tmbutils6vectorIS2_EEEEvRNS_5ADFunIT_EERKT0_RSA_"
 "_ZN5CppAD11RevHesSweepIdNS_11sparse_packEEEvyyPNS_6playerIT_EERT0_PbS7_"
 "_ZN5CppAD11atomic_baseINS_2ADINS1_IdEEEEE12class_objectEv"
 "_ZN5CppAD11atomic_baseINS_2ADINS1_IdEEEEE14for_sparse_jacEyRKNS_6vectorISt3setIySt4lessIyESaIyEEEERSB_"
 "_ZN5CppAD11atomic_baseINS_2ADINS1_IdEEEEE14for_sparse_jacEyRKNS_6vectorIbEERS6_"
 "_ZN5CppAD11atomic_baseINS_2ADINS1_IdEEEEE14rev_sparse_hesERKNS_6vectorIbEES8_RS6_yRKNS5_ISt3setIySt4lessIyESaIyEEEESH_RSF_"
 "_ZN5CppAD11atomic_baseINS_2ADINS1_IdEEEEE14rev_sparse_hesERKNS_6vectorIbEES8_RS6_yS8_S8_S9_"
 "_ZN5CppAD11atomic_baseINS_2ADINS1_IdEEEEE14rev_sparse_jacEyRKNS_6vectorISt3setIySt4lessIyESaIyEEEERSB_"
 "_ZN5CppAD11atomic_baseINS_2ADINS1_IdEEEEE14rev_sparse_jacEyRKNS_6vectorIbEERS6_"
 "_ZN5CppAD11atomic_baseINS_2ADINS1_IdEEEEE6set_idEy"
 "_ZN5CppAD11atomic_baseINS_2ADINS1_IdEEEEE7forwardEyyRKNS_6vectorIbEERS6_RKNS5_IS3_EERSA_"
 "_ZN5CppAD11atomic_baseINS_2ADINS1_IdEEEEE7reverseEyRKNS_6vectorIS3_EES8_RS6_S8_"
 "_ZN5CppAD11atomic_baseINS_2ADINS1_IdEEEEEC2ERKNSt7__cxx1112basic_stringIcSt11char_traitsIcESaIcEEE"
 "_ZN5CppAD11atomic_baseINS_2ADINS1_IdEEEEED0Ev"
 "_ZN5CppAD11atomic_baseINS_2ADINS1_IdEEEEED1Ev"
 "_ZN5CppAD11atomic_baseINS_2ADINS1_IdEEEEED2Ev"
 "_ZN5CppAD11atomic_baseINS_2ADINS1_IdEEEEEclINS_6vectorINS1_IS3_EEEEEEvRKT_RS9_y"
 "_ZN5CppAD11atomic_baseINS_2ADIdEEE12class_objectEv"
 "_ZN5CppAD11atomic_baseINS_2ADIdEEE14for_sparse_jacEyRKNS_6vectorISt3setIySt4lessIyESaIyEEEERSA_"
 "_ZN5CppAD11atomic_baseINS_2ADIdEEE14for_sparse_jacEyRKNS_6vectorIbEERS5_"
 "_ZN5CppAD11atomic_baseINS_2ADIdEEE14rev_sparse_hesERKNS_6vectorIbEES7_RS5_yRKNS4_ISt3setIySt4lessIyESaIyEEEESG_RSE_"
 "_ZN5CppAD11atomic_baseINS_2ADIdEEE14rev_sparse_hesERKNS_6vectorIbEES7_RS5_yS7_S7_S8_"
 "_ZN5CppAD11atomic_baseINS_2ADIdEEE14rev_sparse_jacEyRKNS_6vectorISt3setIySt4lessIyESaIyEEEERSA_"
 "_ZN5CppAD11atomic_baseINS_2ADIdEEE14rev_sparse_jacEyRKNS_6vectorIbEERS5_"
 "_ZN5CppAD11atomic_baseINS_2ADIdEEE6set_idEy"
 "_ZN5CppAD11atomic_baseINS_2ADIdEEE7forwardEyyRKNS_6vectorIbEERS5_RKNS4_IS2_EERS9_"
 "_ZN5CppAD11atomic_baseINS_2ADIdEEE7reverseEyRKNS_6vectorIS2_EES7_RS5_S7_"
 "_ZN5CppAD11atomic_baseINS_2ADIdEEEC2ERKNSt7__cxx1112basic_stringIcSt11char_traitsIcESaIcEEE"
 "_ZN5CppAD11atomic_baseINS_2ADIdEEED0Ev"
 "_ZN5CppAD11atomic_baseINS_2ADIdEEED1Ev"
 "_ZN5CppAD11atomic_baseINS_2ADIdEEED2Ev"
 "_ZN5CppAD11atomic_baseINS_2ADIdEEEclINS_6vectorINS1_IS2_EEEEEEvRKT_RS8_y"
 "_ZN5CppAD11atomic_baseIdE12class_objectEv"
 "_ZN5CppAD11atomic_baseIdE14for_sparse_jacEyRKNS_6vectorISt3setIySt4lessIyESaIyEEEERS8_"
 "_ZN5CppAD11atomic_baseIdE14for_sparse_jacEyRKNS_6vectorIbEERS3_"
 "_ZN5CppAD11atomic_baseIdE14rev_sparse_hesERKNS_6vectorIbEES5_RS3_yRKNS2_ISt3setIySt4lessIyESaIyEEEESE_RSC_"
 "_ZN5CppAD11atomic_baseIdE14rev_sparse_hesERKNS_6vectorIbEES5_RS3_yS5_S5_S6_"
 "_ZN5CppAD11atomic_baseIdE14rev_sparse_jacEyRKNS_6vectorISt3setIySt4lessIyESaIyEEEERS8_"
 "_ZN5CppAD11atomic_baseIdE14rev_sparse_jacEyRKNS_6vectorIbEERS3_"
 "_ZN5CppAD11atomic_baseIdE6set_idEy"
 "_ZN5CppAD11atomic_baseIdE7forwardEyyRKNS_6vectorIbEERS3_RKNS2_IdEERS7_"
 "_ZN5CppAD11atomic_baseIdE7reverseEyRKNS_6vectorIdEES5_RS3_S5_"
 "_ZN5CppAD11atomic_baseIdEC2ERKNSt7__cxx1112basic_stringIcSt11char_traitsIcESaIcEEE"
 "_ZN5CppAD11atomic_baseIdED0Ev"
 "_ZN5CppAD11atomic_baseIdED1Ev"
 "_ZN5CppAD11atomic_baseIdED2Ev"
 "_ZN5CppAD11atomic_baseIdEclINS_6vectorINS_2ADIdEEEEEEvRKT_RS7_y"
 "_ZN5CppAD11sparse_listD1Ev"
 "_ZN5CppAD11sparse_pack12binary_unionEyyyRKS0_"
 "_ZN5CppAD11sparse_pack12next_elementEv"
 "_ZN5CppAD11sparse_pack6resizeEyy"
 "_ZN5CppAD12ReverseSweepINS_2ADINS1_IdEEEEEEvyyyPNS_6playerIT_EEyPKS5_yPS5_PbRKNS_10pod_vectorIjEE"
 "_ZN5CppAD12ReverseSweepINS_2ADIdEEEEvyyyPNS_6playerIT_EEyPKS4_yPS4_PbRKNS_10pod_vectorIjEE"
 "_ZN5CppAD12ReverseSweepIdEEvyyyPNS_6playerIT_EEyPKS2_yPS2_PbRKNS_10pod_vectorIjEE"
 "_ZN5CppAD12thread_alloc10get_memoryEyRy"
 "_ZN5CppAD12thread_alloc11thread_infoEyb"
 "_ZN5CppAD12thread_alloc12create_arrayINS_2ADINS2_IdEEEEEEPT_yRy"
 "_ZN5CppAD12thread_alloc12create_arrayINS_2ADIdEEEEPT_yRy"
 "_ZN5CppAD12thread_alloc12create_arrayIyEEPT_yRy"
 "_ZN5CppAD12thread_alloc12delete_arrayINS_6vectorIiEEEEvPT_"
 "_ZN5CppAD12thread_alloc12delete_arrayINS_8optimize16struct_user_infoEEEvPT_"
 "_ZN5CppAD12thread_alloc12delete_arrayINS_8optimize17struct_cskip_infoEEEvPT_"
 "_ZN5CppAD12thread_alloc12delete_arrayINS_8optimize19class_set_cexp_pairEEEvPT_"
 "_ZN5CppAD12thread_alloc12delete_arrayISt3setIySt4lessIyESaIyEEEEvPT_"
 "_ZN5CppAD12thread_alloc13return_memoryEPv"
 "_ZN5CppAD13IdenticalZeroINS_2ADIdEEEEbRKNS1_IT_EE"
 "_ZN5CppAD13forward0sweepINS_2ADINS1_IdEEEEEEvRSobyyPNS_6playerIT_EEyPS6_PbRNS_10pod_vectorIjEEyRySE_"
 "_ZN5CppAD13forward0sweepINS_2ADIdEEEEvRSobyyPNS_6playerIT_EEyPS5_PbRNS_10pod_vectorIjEEyRySD_"
 "_ZN5CppAD13forward0sweepIdEEvRSobyyPNS_6playerIT_EEyPS3_PbRNS_10pod_vectorIjEEyRySB_"
 "_ZN5CppAD13forward1sweepINS_2ADINS1_IdEEEEEEvRSobyyyyPNS_6playerIT_EEyPS6_PbRNS_10pod_vectorIjEEyRySE_"
 "_ZN5CppAD13forward1sweepINS_2ADIdEEEEvRSobyyyyPNS_6playerIT_EEyPS5_PbRNS_10pod_vectorIjEEyRySD_"
 "_ZN5CppAD13forward1sweepIdEEvRSobyyyyPNS_6playerIT_EEyPS3_PbRNS_10pod_vectorIjEEyRySB_"
 "_ZN5CppAD13forward_pri_0INS_2ADINS1_IdEEEEEEvRSoPKjyPKcyPKT_ySB_"
 "_ZN5CppAD13forward_pri_0INS_2ADIdEEEEvRSoPKjyPKcyPKT_ySA_"
 "_ZN5CppAD13forward_pri_0IdEEvRSoPKjyPKcyPKT_yS8_"
 "_ZN5CppAD14forward_cos_opINS_2ADINS1_IdEEEEEEvyyyyyPT_"
 "_ZN5CppAD14forward_cos_opINS_2ADIdEEEEvyyyyyPT_"
 "_ZN5CppAD14forward_dis_opINS_2ADINS1_IdEEEEEEvyyyyPKjyPT_"
 "_ZN5CppAD14forward_exp_opINS_2ADINS1_IdEEEEEEvyyyyyPT_"
 "_ZN5CppAD14forward_exp_opINS_2ADIdEEEEvyyyyyPT_"
 "_ZN5CppAD14forward_exp_opIdEEvyyyyyPT_"
 "_ZN5CppAD14forward_log_opINS_2ADINS1_IdEEEEEEvyyyyyPT_"
 "_ZN5CppAD14forward_log_opINS_2ADIdEEEEvyyyyyPT_"
 "_ZN5CppAD14forward_log_opIdEEvyyyyyPT_"
 "_ZN5CppAD14forward_sin_opINS_2ADINS1_IdEEEEEEvyyyyyPT_"
 "_ZN5CppAD14forward_sin_opINS_2ADIdEEEEvyyyyyPT_"
 "_ZN5CppAD14forward_tan_opINS_2ADINS1_IdEEEEEEvyyyyyPT_"
 "_ZN5CppAD14forward_tan_opINS_2ADIdEEEEvyyyyyPT_"
 "_ZN5CppAD14myReverseSweepINS_2ADIdEEEEvyyyPNS_6playerIT_EEyPKS4_yPS4_yPNS_5ADFunIS4_EERKNS_10pod_vectorIjEE"
 "_ZN5CppAD14reverse_cos_opINS_2ADINS1_IdEEEEEEvyyyyPKT_yPS4_"
 "_ZN5CppAD14reverse_cos_opINS_2ADIdEEEEvyyyyPKT_yPS3_"
 "_ZN5CppAD14reverse_exp_opINS_2ADINS1_IdEEEEEEvyyyyPKT_yPS4_"
 "_ZN5CppAD14reverse_exp_opINS_2ADIdEEEEvyyyyPKT_yPS3_"
 "_ZN5CppAD14reverse_exp_opIdEEvyyyyPKT_yPS1_"
 "_ZN5CppAD14reverse_log_opINS_2ADINS1_IdEEEEEEvyyyyPKT_yPS4_"
 "_ZN5CppAD14reverse_log_opINS_2ADIdEEEEvyyyyPKT_yPS3_"
 "_ZN5CppAD14reverse_log_opIdEEvyyyyPKT_yPS1_"
 "_ZN5CppAD14reverse_sin_opINS_2ADINS1_IdEEEEEEvyyyyPKT_yPS4_"
 "_ZN5CppAD14reverse_sin_opINS_2ADIdEEEEvyyyyPKT_yPS3_"
 "_ZN5CppAD14reverse_tan_opINS_2ADINS1_IdEEEEEEvyyyyPKT_yPS4_"
 "_ZN5CppAD14reverse_tan_opINS_2ADIdEEEEvyyyyPKT_yPS3_"
 "_ZN5CppAD15CondExpTemplateIddEET0_NS_9CompareOpERKT_S5_RKS1_S7_"
 "_ZN5CppAD15forward_acos_opINS_2ADINS1_IdEEEEEEvyyyyyPT_"
 "_ZN5CppAD15forward_acos_opINS_2ADIdEEEEvyyyyyPT_"
 "_ZN5CppAD15forward_acos_opIdEEvyyyyyPT_"
 "_ZN5CppAD15forward_asin_opINS_2ADINS1_IdEEEEEEvyyyyyPT_"
 "_ZN5CppAD15forward_asin_opINS_2ADIdEEEEvyyyyyPT_"
 "_ZN5CppAD15forward_asin_opIdEEvyyyyyPT_"
 "_ZN5CppAD15forward_atan_opINS_2ADINS1_IdEEEEEEvyyyyyPT_"
 "_ZN5CppAD15forward_atan_opINS_2ADIdEEEEvyyyyyPT_"
 "_ZN5CppAD15forward_cond_opINS_2ADINS1_IdEEEEEEvyyyPKjyPKT_yPS6_"
 "_ZN5CppAD15forward_cosh_opINS_2ADINS1_IdEEEEEEvyyyyyPT_"
 "_ZN5CppAD15forward_cosh_opINS_2ADIdEEEEvyyyyyPT_"
 "_ZN5CppAD15forward_csum_opINS_2ADINS1_IdEEEEEEvyyyPKjyPKT_yPS6_"
 "_ZN5CppAD15forward_csum_opINS_2ADIdEEEEvyyyPKjyPKT_yPS5_"
 "_ZN5CppAD15forward_csum_opIdEEvyyyPKjyPKT_yPS3_"
 "_ZN5CppAD15forward_load_opINS_2ADINS1_IdEEEEEEvPKNS_6playerIT_EENS_6OpCodeEyyyyyPKjSB_PS5_"
 "_ZN5CppAD15forward_load_opINS_2ADIdEEEEvPKNS_6playerIT_EENS_6OpCodeEyyyyyPKjSA_PS4_"
 "_ZN5CppAD15forward_load_opIdEEvPKNS_6playerIT_EENS_6OpCodeEyyyyyPKjS8_PS2_"
 "_ZN5CppAD15forward_sinh_opINS_2ADINS1_IdEEEEEEvyyyyyPT_"
 "_ZN5CppAD15forward_sinh_opINS_2ADIdEEEEvyyyyyPT_"
 "_ZN5CppAD15forward_tanh_opINS_2ADINS1_IdEEEEEEvyyyyyPT_"
 "_ZN5CppAD15forward_tanh_opINS_2ADIdEEEEvyyyyyPT_"
 "_ZN5CppAD15reverse_acos_opINS_2ADINS1_IdEEEEEEvyyyyPKT_yPS4_"
 "_ZN5CppAD15reverse_acos_opINS_2ADIdEEEEvyyyyPKT_yPS3_"
 "_ZN5CppAD15reverse_acos_opIdEEvyyyyPKT_yPS1_"
 "_ZN5CppAD15reverse_asin_opINS_2ADINS1_IdEEEEEEvyyyyPKT_yPS4_"
 "_ZN5CppAD15reverse_asin_opINS_2ADIdEEEEvyyyyPKT_yPS3_"
 "_ZN5CppAD15reverse_asin_opIdEEvyyyyPKT_yPS1_"
 "_ZN5CppAD15reverse_atan_opINS_2ADINS1_IdEEEEEEvyyyyPKT_yPS4_"
 "_ZN5CppAD15reverse_atan_opINS_2ADIdEEEEvyyyyPKT_yPS3_"
 "_ZN5CppAD15reverse_atan_opIdEEvyyyyPKT_yPS1_"
 "_ZN5CppAD15reverse_cond_opINS_2ADIdEEEEvyyPKjyPKT_yS7_yPS5_"
 "_ZN5CppAD15reverse_cosh_opINS_2ADINS1_IdEEEEEEvyyyyPKT_yPS4_"
 "_ZN5CppAD15reverse_cosh_opINS_2ADIdEEEEvyyyyPKT_yPS3_"
 "_ZN5CppAD15reverse_csum_opINS_2ADIdEEEEvyyPKjyPT_"
 "_ZN5CppAD15reverse_sinh_opINS_2ADINS1_IdEEEEEEvyyyyPKT_yPS4_"
 "_ZN5CppAD15reverse_sinh_opINS_2ADIdEEEEvyyyyPKT_yPS3_"
 "_ZN5CppAD15reverse_sqrt_opINS_2ADIdEEEEvyyyyPKT_yPS3_"
 "_ZN5CppAD15reverse_tanh_opINS_2ADINS1_IdEEEEEEvyyyyPKT_yPS4_"
 "_ZN5CppAD15reverse_tanh_opINS_2ADIdEEEEvyyyyPKT_yPS3_"
 "_ZN5CppAD16ForSparseJacBoolIdN8tmbutils6vectorIbEEEEvbyRKT0_RS4_yRNS_6vectorIyEESA_RNS_6playerIT_EERNS_11sparse_packE"
 "_ZN5CppAD16RevSparseHesBoolIdN8tmbutils6vectorIbEEEEvbyRKT0_RS4_yRNS_6vectorIyEESA_RNS_6playerIT_EERNS_11sparse_packE"
 "_ZN5CppAD16forward_mulpv_opINS_2ADINS1_IdEEEEEEvyyyPKjPKT_yPS6_"
 "_ZN5CppAD16forward_mulpv_opINS_2ADIdEEEEvyyyPKjPKT_yPS5_"
 "_ZN5CppAD16forward_mulvv_opINS_2ADINS1_IdEEEEEEvyyyPKjPKT_yPS6_"
 "_ZN5CppAD16forward_mulvv_opINS_2ADIdEEEEvyyyPKjPKT_yPS5_"
 "_ZN5CppAD16reverse_divpv_opINS_2ADIdEEEEvyyPKjPKT_yS7_yPS5_"
 "_ZN5CppAD16reverse_divvv_opINS_2ADIdEEEEvyyPKjPKT_yS7_yPS5_"
 "_ZN5CppAD16reverse_mulpv_opINS_2ADINS1_IdEEEEEEvyyPKjPKT_yS8_yPS6_"
 "_ZN5CppAD16reverse_mulpv_opINS_2ADIdEEEEvyyPKjPKT_yS7_yPS5_"
 "_ZN5CppAD16reverse_mulvv_opINS_2ADINS1_IdEEEEEEvyyPKjPKT_yS8_yPS6_"
 "_ZN5CppAD16reverse_mulvv_opINS_2ADIdEEEEvyyPKjPKT_yS7_yPS5_"
 "_ZN5CppAD16reverse_mulvv_opIdEEvyyPKjPKT_yS5_yPS3_"
 "_ZN5CppAD18forward_cskip_op_0INS_2ADINS1_IdEEEEEEvyPKjyPKT_yPS6_Pb"
 "_ZN5CppAD18forward_cskip_op_0INS_2ADIdEEEEvyPKjyPKT_yPS5_Pb"
 "_ZN5CppAD18forward_cskip_op_0IdEEvyPKjyPKT_yPS3_Pb"
 "_ZN5CppAD18traceforward0sweepEi"
 "_ZN5CppAD19forward_load_p_op_0INS_2ADINS1_IdEEEEEEvPNS_6playerIT_EEyPKjPKS5_yPS5_PbPyPj"
 "_ZN5CppAD19forward_load_v_op_0INS_2ADINS1_IdEEEEEEvPNS_6playerIT_EEyPKjPKS5_yPS5_PbPyPj"
 "_ZN5CppAD19forward_load_v_op_0INS_2ADIdEEEEvPNS_6playerIT_EEyPKjPKS4_yPS4_PbPyPj"
 "_ZN5CppAD19forward_load_v_op_0IdEEvPNS_6playerIT_EEyPKjPKS2_yPS2_PbPyPj"
 "_ZN5CppAD2ADINS0_INS0_IdEEEEE11tape_manageENS_15tape_manage_jobE"
 "_ZN5CppAD2ADINS0_INS0_IdEEEEEmIERKS3_"
 "_ZN5CppAD2ADINS0_INS0_IdEEEEEpLERKS3_"
 "_ZN5CppAD2ADINS0_IdEEE11tape_manageENS_15tape_manage_jobE"
 "_ZN5CppAD2ADINS0_IdEEEdVERKS2_"
 "_ZN5CppAD2ADINS0_IdEEEmIERKS2_"
 "_ZN5CppAD2ADINS0_IdEEEpLERKS2_"
 "_ZN5CppAD2ADIdE11tape_manageENS_15tape_manage_jobE"
 "_ZN5CppAD2ADIdEdVERKS1_"
 "_ZN5CppAD2ADIdEmIERKS1_"
 "_ZN5CppAD2ADIdEmLERKS1_"
 "_ZN5CppAD2ADIdEpLERKS1_"
 "_ZN5CppAD3powINS_2ADINS1_INS1_IdEEEEEEEET_RKS5_RKi"
 "_ZN5CppAD3powINS_2ADINS1_IdEEEEEENS1_IT_EERKS5_S7_"
 "_ZN5CppAD3powINS_2ADINS1_IdEEEEEET_RKS4_RKi"
 "_ZN5CppAD3powINS_2ADIdEEEENS1_IT_EERKS4_S6_"
 "_ZN5CppAD3powINS_2ADIdEEEET_RKS3_RKi"
 "_ZN5CppAD3powIdEENS_2ADIT_EERKS3_S5_"
 "_ZN5CppAD41reverse_sparse_hessian_nonlinear_unary_opINS_11sparse_packEEEvyyPbRT_S4_"
 "_ZN5CppAD5ADFunINS_2ADINS1_IdEEEEE14capacity_orderEyy"
 "_ZN5CppAD5ADFunINS_2ADINS1_IdEEEEE7ForwardIN8tmbutils6vectorIS3_EEEET_yRKS9_RSo"
 "_ZN5CppAD5ADFunINS_2ADINS1_IdEEEEE7ReverseIN8tmbutils6vectorIS3_EEEET_yRKS9_"
 "_ZN5CppAD5ADFunINS_2ADINS1_IdEEEEE8JacobianIN8tmbutils6vectorIS3_EEEET_RKS9_"
 "_ZN5CppAD5ADFunINS_2ADINS1_IdEEEEE9DependentIN8tmbutils6vectorINS1_IS3_EEEEEEvPNS_6ADTapeIS3_EERKT_"
 "_ZN5CppAD5ADFunINS_2ADINS1_IdEEEEED1Ev"
 "_ZN5CppAD5ADFunINS_2ADIdEEE14capacity_orderEyy"
 "_ZN5CppAD5ADFunINS_2ADIdEEE21prepare_reverse_sweepEi"
 "_ZN5CppAD5ADFunINS_2ADIdEEE7ForwardIN8tmbutils6vectorIS2_EEEET_yRKS8_RSo"
 "_ZN5CppAD5ADFunINS_2ADIdEEE7ReverseIN8tmbutils6vectorIS2_EEEET_yRKS8_"
 "_ZN5CppAD5ADFunINS_2ADIdEEE7my_initENS_6vectorIbEE"
 "_ZN5CppAD5ADFunINS_2ADIdEEE8JacobianIN8tmbutils6vectorIS2_EEEET_RKS8_"
 "_ZN5CppAD5ADFunINS_2ADIdEEE8markArgsERNS_10tape_pointE"
 "_ZN5CppAD5ADFunINS_2ADIdEEE8optimizeERKNSt7__cxx1112basic_stringIcSt11char_traitsIcESaIcEEE"
 "_ZN5CppAD5ADFunINS_2ADIdEEE9DependentIN8tmbutils6vectorINS1_IS2_EEEEEEvPNS_6ADTapeIS2_EERKT_"
 "_ZN5CppAD5ADFunINS_2ADIdEEE9myReverseIN8tmbutils6vectorIS2_EEEEvyRKT_yRS8_"
 "_ZN5CppAD5ADFunINS_2ADIdEEEC1IN8tmbutils6vectorINS1_IS2_EEEEEERKT_SB_"
 "_ZN5CppAD5ADFunINS_2ADIdEEED1Ev"
 "_ZN5CppAD5ADFunIdE14capacity_orderEyy"
 "_ZN5CppAD5ADFunIdE6ForTwoIN8tmbutils6vectorIdEENS4_IyEEEET_RKS7_RKT0_SC_"
 "_ZN5CppAD5ADFunIdE6RevTwoIN8tmbutils6vectorIdEENS4_IyEEEET_RKS7_RKT0_SC_"
 "_ZN5CppAD5ADFunIdE7ForwardIN5Eigen6MatrixIdLin1ELi1ELi0ELin1ELi1EEEEET_yRKS6_RSo"
 "_ZN5CppAD5ADFunIdE7ForwardIN8tmbutils6vectorIdEEEET_yRKS6_RSo"
 "_ZN5CppAD5ADFunIdE7HessianIN8tmbutils6vectorIdEEEET_RKS6_S8_"
 "_ZN5CppAD5ADFunIdE7HessianIN8tmbutils6vectorIdEEEET_RKS6_y"
 "_ZN5CppAD5ADFunIdE7ReverseIN5Eigen6MatrixIdLin1ELi1ELi0ELin1ELi1EEEEET_yRKS6_"
 "_ZN5CppAD5ADFunIdE7ReverseIN8tmbutils6vectorIdEEEET_yRKS6_"
 "_ZN5CppAD5ADFunIdE8optimizeERKNSt7__cxx1112basic_stringIcSt11char_traitsIcESaIcEEE"
 "_ZN5CppAD5ADFunIdE9DependentIN8tmbutils6vectorINS_2ADIdEEEEEEvPNS_6ADTapeIdEERKT_"
 "_ZN5CppAD5ADFunIdEC1IN8tmbutils6vectorINS_2ADIdEEEEEERKT_SA_"
 "_ZN5CppAD5ADFunIdED1Ev"
 "_ZN5CppAD6ADTapeINS_2ADINS1_IdEEEEE13RecordCondExpENS_9CompareOpERNS1_IS3_EERKS6_S9_S9_S9_"
 "_ZN5CppAD6ADTapeINS_2ADIdEEE11IndependentIN8tmbutils6vectorINS1_IS2_EEEEEEvRT_y"
 "_ZN5CppAD6ADTapeINS_2ADIdEEE13RecordCondExpENS_9CompareOpERNS1_IS2_EERKS5_S8_S8_S8_"
 "_ZN5CppAD6ADTapeIdE11IndependentIN8tmbutils6vectorINS_2ADIdEEEEEEvRT_y"
 "_ZN5CppAD6ADTapeIdE13RecordCondExpENS_9CompareOpERNS_2ADIdEERKS4_S7_S7_S7_"
 "_ZN5CppAD6vectorINS_2ADINS1_IdEEEEE6resizeEy"
 "_ZN5CppAD6vectorINS_2ADIdEEE6resizeEy"
 "_ZN5CppAD6vectorINS_8optimize16struct_user_infoEE9push_backERKS2_"
 "_ZN5CppAD6vectorINS_8optimize17struct_cskip_infoEE9push_backERKS2_"
 "_ZN5CppAD6vectorISt3setIySt4lessIyESaIyEEE6resizeEy"
 "_ZN5CppAD6vectorIbE6resizeEy"
 "_ZN5CppAD6vectorIdE6resizeEy"
 "_ZN5CppAD6vectorIyE6resizeEy"
 "_ZN5CppAD6vectorIyE9push_backERKy"
 "_ZN5CppAD8VariableEd"
 "_ZN5CppAD8optimize11record_csumINS_2ADIdEEEENS0_16struct_size_pairERKNS_6vectorINS0_19struct_old_variableEEEyyPKT_PNS_8recorderISA_EERNS0_18struct_csum_stacksE"
 "_ZN5CppAD8optimize11record_csumIdEENS0_16struct_size_pairERKNS_6vectorINS0_19struct_old_variableEEEyyPKT_PNS_8recorderIS8_EERNS0_18struct_csum_stacksE"
 "_ZN5CppAD8optimize12binary_matchINS_2ADIdEEEEjRKNS_6vectorINS0_19struct_old_variableEEEyyPKT_RKNS4_IyEERt"
 "_ZN5CppAD8optimize12binary_matchIdEEjRKNS_6vectorINS0_19struct_old_variableEEEyyPKT_RKNS2_IyEERt"
 "_ZN5CppAD8optimize12optimize_runINS_2ADIdEEEEvRKNSt7__cxx1112basic_stringIcSt11char_traitsIcESaIcEEEyRNS_6vectorIyEEPNS_6playerIT_EEPNS_8recorderISG_EE"
 "_ZN5CppAD8optimize12optimize_runIdEEvRKNSt7__cxx1112basic_stringIcSt11char_traitsIcESaIcEEEyRNS_6vectorIyEEPNS_6playerIT_EEPNS_8recorderISE_EE"
 "_ZN5CppAD8optimize17struct_cskip_infoC1ERKS1_"
 "_ZN5CppAD8optimize17struct_cskip_infoD1Ev"
 "_ZN5CppAD8optimize18struct_csum_stacksC1Ev"
 "_ZN5CppAD8optimize18struct_csum_stacksD1Ev"
 "_ZN5CppAD8optimize19class_set_cexp_pair12intersectionERKS1_"
 "_ZN5CppAD8optimize19class_set_cexp_pair6insertERKNS0_15class_cexp_pairE"
 "_ZN5CppAD8recorderINS_2ADINS1_IdEEEEE5PutOpENS_6OpCodeE"
 "_ZN5CppAD8recorderINS_2ADINS1_IdEEEEE6PutArgEjj"
 "_ZN5CppAD8recorderINS_2ADINS1_IdEEEEE6PutParERKS3_"
 "_ZN5CppAD8recorderINS_2ADIdEEE5PutOpENS_6OpCodeE"
 "_ZN5CppAD8recorderINS_2ADIdEEE6PutArgEjj"
 "_ZN5CppAD8recorderINS_2ADIdEEE6PutArgEjjj"
 "_ZN5CppAD8recorderINS_2ADIdEEE6PutParERKS2_"
 "_ZN5CppAD8recorderIdE5PutOpENS_6OpCodeE"
 "_ZN5CppAD8recorderIdE6PutArgEjj"
 "_ZN5CppAD8recorderIdE6PutArgEjjj"
 "_ZN5CppAD8recorderIdE6PutParERKd"
 "_ZN5CppAD9CondExpOpINS_2ADINS1_IdEEEEEENS1_IT_EENS_9CompareOpERKS5_S8_S8_S8_"
 "_ZN5CppAD9CondExpOpINS_2ADIdEEEENS1_IT_EENS_9CompareOpERKS4_S7_S7_S7_"
 "_ZN5CppAD9CondExpOpIdEENS_2ADIT_EENS_9CompareOpERKS3_S6_S6_S6_"
 "_ZN5CppAD9hash_codeINS_2ADIdEEEEtNS_6OpCodeEPKjyPKT_"
 "_ZN5CppAD9hash_codeIdEEtNS_6OpCodeEPKjyPKT_"
 "_ZN5CppADdvINS_2ADINS1_IdEEEEEENS1_IT_EERKS5_S7_"
 "_ZN5CppADdvINS_2ADIdEEEENS1_IT_EERKS4_S6_"
 "_ZN5CppADdvIdEENS_2ADIT_EERKS3_S5_"
 "_ZN5CppADeqINS_2ADIdEEEEbRKNS1_IT_EES6_"
 "_ZN5CppADeqIdEEbRKNS_2ADIT_EES5_"
 "_ZN5CppADgeIdEEbRKNS_2ADIT_EES5_"
 "_ZN5CppADgtINS_2ADIdEEEEbRKNS1_IT_EES6_"
 "_ZN5CppADgtIdEEbRKNS_2ADIT_EES5_"
 "_ZN5CppADleIdEEbRKNS_2ADIT_EES5_"
 "_ZN5CppADltIdEEbRKNS_2ADIT_EES5_"
 "_ZN5CppADmiINS_2ADINS1_IdEEEEEENS1_IT_EERKS5_S7_"
 "_ZN5CppADmiINS_2ADIdEEEENS1_IT_EERKS4_S6_"
 "_ZN5CppADmiIdEENS_2ADIT_EERKS3_S5_"
 "_ZN5CppADmlINS_2ADINS1_IdEEEEEENS1_IT_EERKS5_S7_"
 "_ZN5CppADmlINS_2ADIdEEEENS1_IT_EERKS4_S6_"
 "_ZN5CppADmlIdEENS_2ADIT_EERKS3_S5_"
 "_ZN5CppADneINS_2ADIdEEEEbRKNS1_IT_EES6_"
 "_ZN5CppADneIdEEbRKNS_2ADIT_EES5_"
 "_ZN5CppADplINS_2ADINS1_IdEEEEEENS1_IT_EERKS5_S7_"
 "_ZN5CppADplINS_2ADIdEEEENS1_IT_EERKS4_S6_"
 "_ZN5CppADplIdEENS_2ADIT_EERKS3_S5_"
 "_ZN5Eigen12DenseStorageIN5CppAD2ADINS2_INS2_IdEEEEEELin1ELin1ELin1ELi0EEC1ERKS6_"
 "_ZN5Eigen12DenseStorageIN5CppAD2ADINS2_IdEEEELin1ELin1ELin1ELi0EEC1ERKS5_"
 "_ZN5Eigen12DenseStorageIN5CppAD2ADIdEELin1ELin1ELin1ELi0EEC1ERKS4_"
 "_ZN5Eigen12DenseStorageIN8tmbutils6matrixIdEELin1ELin1ELi1ELi0EED1Ev"
 "_ZN5Eigen12DenseStorageIN8tmbutils6vectorIdEELin1ELin1ELi1ELi0EED1Ev"
 "_ZN5Eigen12DenseStorageINS_6MatrixIdLin1ELi1ELi0ELin1ELi1EEELin1ELin1ELi1ELi0EED1Ev"
 "_ZN5Eigen12DenseStorageIdLin1ELin1ELin1ELi0EEC1ERKS1_"
 "_ZN5Eigen12DenseStorageIiLin1ELin1ELin1ELi0EEC1ERKS1_"
 "_ZN5Eigen12PartialPivLUINS_6MatrixIdLin1ELin1ELi0ELin1ELin1EEEE7computeEv"
 "_ZN5Eigen12PartialPivLUINS_6MatrixIdLin1ELin1ELi0ELin1ELin1EEEED1Ev"
 "_ZN5Eigen12SparseMatrixIN5CppAD2ADINS2_INS2_IdEEEEEELi0EiE18insertUncompressedExx"
 "_ZN5Eigen12SparseMatrixIN5CppAD2ADINS2_INS2_IdEEEEEELi0EiE19reserveInnerVectorsINS6_15SingletonVectorEEEvRKT_"
 "_ZN5Eigen12SparseMatrixIN5CppAD2ADINS2_INS2_IdEEEEEELi0EiE19reserveInnerVectorsINS_14CwiseNullaryOpINS_8internal18scalar_constant_opIiEENS_5ArrayIiLin1ELi1ELi0ELin1ELi1EEEEEEEvRKT_"
 "_ZN5Eigen12SparseMatrixIN5CppAD2ADINS2_INS2_IdEEEEEELi0EiE19reserveInnerVectorsINS_14CwiseNullaryOpINS_8internal18scalar_constant_opIiEENS_6MatrixIiLin1ELi1ELi0ELin1ELi1EEEEEEEvRKT_"
 "_ZN5Eigen12SparseMatrixIN5CppAD2ADINS2_INS2_IdEEEEEELi0EiE6insertExx"
 "_ZN5Eigen12SparseMatrixIN5CppAD2ADINS2_INS2_IdEEEEEELi0EiE6resizeExx"
 "_ZN5Eigen12SparseMatrixIN5CppAD2ADINS2_INS2_IdEEEEEELi0EiE7setZeroEv"
 "_ZN5Eigen12SparseMatrixIN5CppAD2ADINS2_INS2_IdEEEEEELi0EiE8coeffRefExx"
 "_ZN5Eigen12SparseMatrixIN5CppAD2ADINS2_INS2_IdEEEEEELi0EiEC1ERKS6_"
 "_ZN5Eigen12SparseMatrixIN5CppAD2ADINS2_INS2_IdEEEEEELi0EiEC1Ev"
 "_ZN5Eigen12SparseMatrixIN5CppAD2ADINS2_INS2_IdEEEEEELi0EiEC1Exx"
 "_ZN5Eigen12SparseMatrixIN5CppAD2ADINS2_INS2_IdEEEEEELi0EiED1Ev"
 "_ZN5Eigen12SparseMatrixIN5CppAD2ADINS2_INS2_IdEEEEEELi0EiEaSERKS6_"
 "_ZN5Eigen12SparseMatrixIN5CppAD2ADINS2_INS2_IdEEEEEELi0EiEaSINS0_IS5_Li1EiEEEERS6_RKNS_16SparseMatrixBaseIT_EE"
 "_ZN5Eigen12SparseMatrixIN5CppAD2ADINS2_INS2_IdEEEEEELi0EiEaSINS_13CwiseBinaryOpINS_8internal13scalar_sum_opIS5_S5_EEKS6_KNS8_INS9_17scalar_product_opIS5_S5_EEKNS_14CwiseNullaryOpINS9_18scalar_constant_opIS5_EEKNS_6MatrixIS5_Lin1ELin1ELi0ELin1ELin1EEEEESC_EEEEEERS6_RKNS_16SparseMatrixBaseIT_EE"
 "_ZN5Eigen12SparseMatrixIN5CppAD2ADINS2_INS2_IdEEEEEELi0EiEaSINS_13CwiseBinaryOpINS_8internal13scalar_sum_opIS5_S5_EEKS6_SC_EEEERS6_RKNS_16SparseMatrixBaseIT_EE"
 "_ZN5Eigen12SparseMatrixIN5CppAD2ADINS2_INS2_IdEEEEEELi0EiEaSINS_7ProductINS8_IS6_S6_Li2EEES6_Li2EEEEERS6_RKNS_16SparseMatrixBaseIT_EE"
 "_ZN5Eigen12SparseMatrixIN5CppAD2ADINS2_INS2_IdEEEEEELi0EiEaSINS_7ProductIS6_S6_Li2EEEEERS6_RKNS_16SparseMatrixBaseIT_EE"
 "_ZN5Eigen12SparseMatrixIN5CppAD2ADINS2_INS2_IdEEEEEELi0EiEaSINS_9TransposeIKS6_EEEERS6_RKNS_16SparseMatrixBaseIT_EE"
 "_ZN5Eigen12SparseMatrixIN5CppAD2ADINS2_INS2_IdEEEEEELi1EiE18collapseDuplicatesINS_8internal13scalar_sum_opIS5_S5_EEEEvT_"
 "_ZN5Eigen12SparseMatrixIN5CppAD2ADINS2_INS2_IdEEEEEELi1EiE19reserveInnerVectorsINS_6MatrixIiLin1ELi1ELi0ELin1ELi1EEEEEvRKT_"
 "_ZN5Eigen12SparseMatrixIN5CppAD2ADINS2_INS2_IdEEEEEELi1EiED1Ev"
 "_ZN5Eigen12SparseMatrixIN5CppAD2ADINS2_INS2_IdEEEEEELi1EiEaSINS0_IS5_Li0EiEEEERS6_RKNS_16SparseMatrixBaseIT_EE"
 "_ZN5Eigen12SparseMatrixIN5CppAD2ADINS2_IdEEEELi0EiE18insertUncompressedExx"
 "_ZN5Eigen12SparseMatrixIN5CppAD2ADINS2_IdEEEELi0EiE19reserveInnerVectorsINS5_15SingletonVectorEEEvRKT_"
 "_ZN5Eigen12SparseMatrixIN5CppAD2ADINS2_IdEEEELi0EiE19reserveInnerVectorsINS_14CwiseNullaryOpINS_8internal18scalar_constant_opIiEENS_5ArrayIiLin1ELi1ELi0ELin1ELi1EEEEEEEvRKT_"
 "_ZN5Eigen12SparseMatrixIN5CppAD2ADINS2_IdEEEELi0EiE19reserveInnerVectorsINS_14CwiseNullaryOpINS_8internal18scalar_constant_opIiEENS_6MatrixIiLin1ELi1ELi0ELin1ELi1EEEEEEEvRKT_"
 "_ZN5Eigen12SparseMatrixIN5CppAD2ADINS2_IdEEEELi0EiE6insertExx"
 "_ZN5Eigen12SparseMatrixIN5CppAD2ADINS2_IdEEEELi0EiE6resizeExx"
 "_ZN5Eigen12SparseMatrixIN5CppAD2ADINS2_IdEEEELi0EiE7setZeroEv"
 "_ZN5Eigen12SparseMatrixIN5CppAD2ADINS2_IdEEEELi0EiE8coeffRefExx"
 "_ZN5Eigen12SparseMatrixIN5CppAD2ADINS2_IdEEEELi0EiEC1ERKS5_"
 "_ZN5Eigen12SparseMatrixIN5CppAD2ADINS2_IdEEEELi0EiEC1Ev"
 "_ZN5Eigen12SparseMatrixIN5CppAD2ADINS2_IdEEEELi0EiEC1Exx"
 "_ZN5Eigen12SparseMatrixIN5CppAD2ADINS2_IdEEEELi0EiED1Ev"
 "_ZN5Eigen12SparseMatrixIN5CppAD2ADINS2_IdEEEELi0EiEaSERKS5_"
 "_ZN5Eigen12SparseMatrixIN5CppAD2ADINS2_IdEEEELi0EiEaSINS0_IS4_Li1EiEEEERS5_RKNS_16SparseMatrixBaseIT_EE"
 "_ZN5Eigen12SparseMatrixIN5CppAD2ADINS2_IdEEEELi0EiEaSINS_13CwiseBinaryOpINS_8internal13scalar_sum_opIS4_S4_EEKS5_KNS7_INS8_17scalar_product_opIS4_S4_EEKNS_14CwiseNullaryOpINS8_18scalar_constant_opIS4_EEKNS_6MatrixIS4_Lin1ELin1ELi0ELin1ELin1EEEEESB_EEEEEERS5_RKNS_16SparseMatrixBaseIT_EE"
 "_ZN5Eigen12SparseMatrixIN5CppAD2ADINS2_IdEEEELi0EiEaSINS_13CwiseBinaryOpINS_8internal13scalar_sum_opIS4_S4_EEKS5_SB_EEEERS5_RKNS_16SparseMatrixBaseIT_EE"
 "_ZN5Eigen12SparseMatrixIN5CppAD2ADINS2_IdEEEELi0EiEaSINS_7ProductINS7_IS5_S5_Li2EEES5_Li2EEEEERS5_RKNS_16SparseMatrixBaseIT_EE"
 "_ZN5Eigen12SparseMatrixIN5CppAD2ADINS2_IdEEEELi0EiEaSINS_7ProductIS5_S5_Li2EEEEERS5_RKNS_16SparseMatrixBaseIT_EE"
 "_ZN5Eigen12SparseMatrixIN5CppAD2ADINS2_IdEEEELi0EiEaSINS_9TransposeIKS5_EEEERS5_RKNS_16SparseMatrixBaseIT_EE"
 "_ZN5Eigen12SparseMatrixIN5CppAD2ADINS2_IdEEEELi1EiE18collapseDuplicatesINS_8internal13scalar_sum_opIS4_S4_EEEEvT_"
 "_ZN5Eigen12SparseMatrixIN5CppAD2ADINS2_IdEEEELi1EiE19reserveInnerVectorsINS_6MatrixIiLin1ELi1ELi0ELin1ELi1EEEEEvRKT_"
 "_ZN5Eigen12SparseMatrixIN5CppAD2ADINS2_IdEEEELi1EiED1Ev"
 "_ZN5Eigen12SparseMatrixIN5CppAD2ADINS2_IdEEEELi1EiEaSINS0_IS4_Li0EiEEEERS5_RKNS_16SparseMatrixBaseIT_EE"
 "_ZN5Eigen12SparseMatrixIN5CppAD2ADIdEELi0EiE18insertUncompressedExx"
 "_ZN5Eigen12SparseMatrixIN5CppAD2ADIdEELi0EiE19reserveInnerVectorsINS4_15SingletonVectorEEEvRKT_"
 "_ZN5Eigen12SparseMatrixIN5CppAD2ADIdEELi0EiE19reserveInnerVectorsINS_14CwiseNullaryOpINS_8internal18scalar_constant_opIiEENS_5ArrayIiLin1ELi1ELi0ELin1ELi1EEEEEEEvRKT_"
 "_ZN5Eigen12SparseMatrixIN5CppAD2ADIdEELi0EiE6insertExx"
 "_ZN5Eigen12SparseMatrixIN5CppAD2ADIdEELi0EiE6resizeExx"
 "_ZN5Eigen12SparseMatrixIN5CppAD2ADIdEELi0EiE7setZeroEv"
 "_ZN5Eigen12SparseMatrixIN5CppAD2ADIdEELi0EiE8coeffRefExx"
 "_ZN5Eigen12SparseMatrixIN5CppAD2ADIdEELi0EiEC1ERKS4_"
 "_ZN5Eigen12SparseMatrixIN5CppAD2ADIdEELi0EiEC1Ev"
 "_ZN5Eigen12SparseMatrixIN5CppAD2ADIdEELi0EiEC1Exx"
 "_ZN5Eigen12SparseMatrixIN5CppAD2ADIdEELi0EiED1Ev"
 "_ZN5Eigen12SparseMatrixIN5CppAD2ADIdEELi0EiEaSERKS4_"
 "_ZN5Eigen12SparseMatrixIN5CppAD2ADIdEELi0EiEaSINS0_IS3_Li1EiEEEERS4_RKNS_16SparseMatrixBaseIT_EE"
 "_ZN5Eigen12SparseMatrixIN5CppAD2ADIdEELi0EiEaSINS_13CwiseBinaryOpINS_8internal13scalar_sum_opIS3_S3_EEKS4_KNS6_INS7_17scalar_product_opIS3_S3_EEKNS_14CwiseNullaryOpINS7_18scalar_constant_opIS3_EEKNS_6MatrixIS3_Lin1ELin1ELi0ELin1ELin1EEEEESA_EEEEEERS4_RKNS_16SparseMatrixBaseIT_EE"
 "_ZN5Eigen12SparseMatrixIN5CppAD2ADIdEELi0EiEaSINS_13CwiseBinaryOpINS_8internal13scalar_sum_opIS3_S3_EEKS4_SA_EEEERS4_RKNS_16SparseMatrixBaseIT_EE"
 "_ZN5Eigen12SparseMatrixIN5CppAD2ADIdEELi0EiEaSINS_7ProductINS6_IS4_S4_Li2EEES4_Li2EEEEERS4_RKNS_16SparseMatrixBaseIT_EE"
 "_ZN5Eigen12SparseMatrixIN5CppAD2ADIdEELi0EiEaSINS_7ProductIS4_S4_Li2EEEEERS4_RKNS_16SparseMatrixBaseIT_EE"
 "_ZN5Eigen12SparseMatrixIN5CppAD2ADIdEELi0EiEaSINS_9TransposeIKS4_EEEERS4_RKNS_16SparseMatrixBaseIT_EE"
 "_ZN5Eigen12SparseMatrixIN5CppAD2ADIdEELi1EiE18collapseDuplicatesINS_8internal13scalar_sum_opIS3_S3_EEEEvT_"
 "_ZN5Eigen12SparseMatrixIN5CppAD2ADIdEELi1EiE19reserveInnerVectorsINS_6MatrixIiLin1ELi1ELi0ELin1ELi1EEEEEvRKT_"
 "_ZN5Eigen12SparseMatrixIN5CppAD2ADIdEELi1EiED1Ev"
 "_ZN5Eigen12SparseMatrixIN5CppAD2ADIdEELi1EiEaSINS0_IS3_Li0EiEEEERS4_RKNS_16SparseMatrixBaseIT_EE"
 "_ZN5Eigen12SparseMatrixIdLi0EiE18insertUncompressedExx"
 "_ZN5Eigen12SparseMatrixIdLi0EiE19reserveInnerVectorsINS1_15SingletonVectorEEEvRKT_"
 "_ZN5Eigen12SparseMatrixIdLi0EiE19reserveInnerVectorsINS_14CwiseNullaryOpINS_8internal18scalar_constant_opIiEENS_5ArrayIiLin1ELi1ELi0ELin1ELi1EEEEEEEvRKT_"
 "_ZN5Eigen12SparseMatrixIdLi0EiE6insertExx"
 "_ZN5Eigen12SparseMatrixIdLi0EiE6resizeExx"
 "_ZN5Eigen12SparseMatrixIdLi0EiE7setZeroEv"
 "_ZN5Eigen12SparseMatrixIdLi0EiE8coeffRefExx"
 "_ZN5Eigen12SparseMatrixIdLi0EiEC1ERKS1_"
 "_ZN5Eigen12SparseMatrixIdLi0EiEC1Ev"
 "_ZN5Eigen12SparseMatrixIdLi0EiEC1Exx"
 "_ZN5Eigen12SparseMatrixIdLi0EiED1Ev"
 "_ZN5Eigen12SparseMatrixIdLi0EiEaSERKS1_"
 "_ZN5Eigen12SparseMatrixIdLi0EiEaSINS0_IdLi1EiEEEERS1_RKNS_16SparseMatrixBaseIT_EE"
 "_ZN5Eigen12SparseMatrixIdLi0EiEaSINS_13CwiseBinaryOpINS_8internal13scalar_sum_opIddEEKS1_KNS3_INS4_17scalar_product_opIddEEKNS_14CwiseNullaryOpINS4_18scalar_constant_opIdEEKNS_6MatrixIdLin1ELin1ELi0ELin1ELin1EEEEES7_EEEEEERS1_RKNS_16SparseMatrixBaseIT_EE"
 "_ZN5Eigen12SparseMatrixIdLi0EiEaSINS_13CwiseBinaryOpINS_8internal13scalar_sum_opIddEEKS1_S7_EEEERS1_RKNS_16SparseMatrixBaseIT_EE"
 "_ZN5Eigen12SparseMatrixIdLi0EiEaSINS_14TriangularViewIKS1_Lj1EEEEERS1_RKNS_16SparseMatrixBaseIT_EE"
 "_ZN5Eigen12SparseMatrixIdLi0EiEaSINS_7ProductINS3_IS1_S1_Li2EEES1_Li2EEEEERS1_RKNS_16SparseMatrixBaseIT_EE"
 "_ZN5Eigen12SparseMatrixIdLi0EiEaSINS_7ProductIS1_S1_Li2EEEEERS1_RKNS_16SparseMatrixBaseIT_EE"
 "_ZN5Eigen12SparseMatrixIdLi0EiEaSINS_9TransposeIKS1_EEEERS1_RKNS_16SparseMatrixBaseIT_EE"
 "_ZN5Eigen12SparseMatrixIdLi1EiE18collapseDuplicatesINS_8internal13scalar_sum_opIddEEEEvT_"
 "_ZN5Eigen12SparseMatrixIdLi1EiE19reserveInnerVectorsINS_6MatrixIiLin1ELi1ELi0ELin1ELi1EEEEEvRKT_"
 "_ZN5Eigen12SparseMatrixIdLi1EiED1Ev"
 "_ZN5Eigen12SparseMatrixIdLi1EiEaSINS0_IdLi0EiEEEERS1_RKNS_16SparseMatrixBaseIT_EE"
 "_ZN5Eigen15PlainObjectBaseINS_5ArrayIN5CppAD2ADINS3_INS3_IdEEEEEELin1ELi1ELi0ELin1ELi1EEEE6resizeExx"
 "_ZN5Eigen15PlainObjectBaseINS_5ArrayIN5CppAD2ADINS3_IdEEEELin1ELi1ELi0ELin1ELi1EEEE6resizeExx"
 "_ZN5Eigen15PlainObjectBaseINS_5ArrayIN5CppAD2ADIdEELin1ELi1ELi0ELin1ELi1EEEE6resizeExx"
 "_ZN5Eigen15PlainObjectBaseINS_5ArrayIdLin1ELi1ELi0ELin1ELi1EEEE6resizeExx"
 "_ZN5Eigen15PlainObjectBaseINS_5ArrayIdLin1ELin1ELi0ELin1ELin1EEEE6resizeExx"
 "_ZN5Eigen15PlainObjectBaseINS_6MatrixIN5CppAD2ADIdEELin1ELin1ELi0ELin1ELin1EEEE6resizeExx"
 "_ZN5Eigen15PlainObjectBaseINS_6MatrixIdLin1ELin1ELi0ELin1ELin1EEEE6resizeExx"
 "_ZN5Eigen22SimplicialCholeskyBaseINS_13SimplicialLLTINS_12SparseMatrixIdLi0EiEELi1ENS_11AMDOrderingIiEEEEE20factorize_preorderedILb0EEEvRKS3_"
 "_ZN5Eigen22SimplicialCholeskyBaseINS_13SimplicialLLTINS_12SparseMatrixIdLi0EiEELi1ENS_11AMDOrderingIiEEEEE25analyzePattern_preorderedERKS3_b"
 "_ZN5Eigen22SimplicialCholeskyBaseINS_14SimplicialLDLTINS_12SparseMatrixIN5CppAD2ADINS4_INS4_IdEEEEEELi0EiEELi1ENS_11AMDOrderingIiEEEEE20factorize_preorderedILb1EEEvRKS8_"
 "_ZN5Eigen22SimplicialCholeskyBaseINS_14SimplicialLDLTINS_12SparseMatrixIN5CppAD2ADINS4_INS4_IdEEEEEELi0EiEELi1ENS_11AMDOrderingIiEEEEE25analyzePattern_preorderedERKS8_b"
 "_ZN5Eigen22SimplicialCholeskyBaseINS_14SimplicialLDLTINS_12SparseMatrixIN5CppAD2ADINS4_INS4_IdEEEEEELi0EiEELi1ENS_11AMDOrderingIiEEEEE8orderingERKS8_RPSD_RS8_"
 "_ZN5Eigen22SimplicialCholeskyBaseINS_14SimplicialLDLTINS_12SparseMatrixIN5CppAD2ADINS4_IdEEEELi0EiEELi1ENS_11AMDOrderingIiEEEEE20factorize_preorderedILb1EEEvRKS7_"
 "_ZN5Eigen22SimplicialCholeskyBaseINS_14SimplicialLDLTINS_12SparseMatrixIN5CppAD2ADINS4_IdEEEELi0EiEELi1ENS_11AMDOrderingIiEEEEE25analyzePattern_preorderedERKS7_b"
 "_ZN5Eigen22SimplicialCholeskyBaseINS_14SimplicialLDLTINS_12SparseMatrixIN5CppAD2ADINS4_IdEEEELi0EiEELi1ENS_11AMDOrderingIiEEEEE8orderingERKS7_RPSC_RS7_"
 "_ZN5Eigen22SimplicialCholeskyBaseINS_14SimplicialLDLTINS_12SparseMatrixIN5CppAD2ADIdEELi0EiEELi1ENS_11AMDOrderingIiEEEEE20factorize_preorderedILb1EEEvRKS6_"
 "_ZN5Eigen22SimplicialCholeskyBaseINS_14SimplicialLDLTINS_12SparseMatrixIN5CppAD2ADIdEELi0EiEELi1ENS_11AMDOrderingIiEEEEE25analyzePattern_preorderedERKS6_b"
 "_ZN5Eigen22SimplicialCholeskyBaseINS_14SimplicialLDLTINS_12SparseMatrixIN5CppAD2ADIdEELi0EiEELi1ENS_11AMDOrderingIiEEEEE8orderingERKS6_RPSB_RS6_"
 "_ZN5Eigen22SimplicialCholeskyBaseINS_14SimplicialLDLTINS_12SparseMatrixIdLi0EiEELi1ENS_11AMDOrderingIiEEEEE20factorize_preorderedILb1EEEvRKS3_"
 "_ZN5Eigen22SimplicialCholeskyBaseINS_14SimplicialLDLTINS_12SparseMatrixIdLi0EiEELi1ENS_11AMDOrderingIiEEEEE25analyzePattern_preorderedERKS3_b"
 "_ZN5Eigen5ArrayIN5CppAD2ADINS2_INS2_IdEEEEEELin1ELi1ELi0ELin1ELi1EEC2IN8tmbutils5arrayIS5_EEEERKT_"
 "_ZN5Eigen5ArrayIN5CppAD2ADINS2_IdEEEELin1ELi1ELi0ELin1ELi1EEC2IN8tmbutils5arrayIS4_EEEERKT_"
 "_ZN5Eigen5ArrayIN5CppAD2ADIdEELin1ELi1ELi0ELin1ELi1EEC2IN8tmbutils5arrayIS3_EEEERKT_"
 "_ZN5Eigen5ArrayIdLin1ELi1ELi0ELin1ELi1EEC2IN8tmbutils5arrayIdEEEERKT_"
 "_ZN5Eigen5ArrayIdLin1ELi1ELi0ELin1ELi1EEC2IyEERKT_"
 "_ZN5Eigen6MatrixIiLin1ELi1ELi0ELin1ELi1EEC1IxEERKT_"
 "_ZN5Eigen8internal10redux_implINS0_13scalar_sum_opIddEENS0_15redux_evaluatorINS_5ArrayIdLin1ELi1ELi0ELin1ELi1EEEEELi3ELi0EE3runERKS7_RKS3_"
 "_ZN5Eigen8internal10redux_implINS0_13scalar_sum_opIiiEENS0_15redux_evaluatorINS_3MapIKNS_6MatrixIiLin1ELi1ELi0ELin1ELi1EEELi0ENS_6StrideILi0ELi0EEEEEEELi3ELi0EE3runERKSC_RKS3_"
 "_ZN5Eigen8internal10redux_implINS0_13scalar_sum_opIiiEENS0_15redux_evaluatorINS_6MatrixIiLin1ELi1ELi0ELin1ELi1EEEEELi3ELi0EE3runERKS7_RKS3_"
 "_ZN5Eigen8internal10redux_implINS0_17scalar_product_opIiiEENS0_15redux_evaluatorINS_5ArrayIiLin1ELi1ELi0ELin1ELi1EEEEELi3ELi0EE3runERKS7_RKS3_"
 "_ZN5Eigen8internal11gebp_kernelIddxNS0_16blas_data_mapperIdxLi0ELi0ELi1EEELi4ELi4ELb0ELb0EEclERKS3_PKdS8_xxxdxxxx"
 "_ZN5Eigen8internal13gemm_pack_lhsIdxNS0_22const_blas_data_mapperIdxLi0EEELi4ELi2ELi0ELb0ELb0EEclEPdRKS3_xxxx"
 "_ZN5Eigen8internal13gemm_pack_rhsIdxNS0_16blas_data_mapperIdxLi0ELi0ELi1EEELi4ELi0ELb0ELb1EEclEPdRKS3_xxxx"
 "_ZN5Eigen8internal13gemm_pack_rhsIdxNS0_22const_blas_data_mapperIdxLi0EEELi4ELi0ELb0ELb0EEclEPdRKS3_xxxx"
 "_ZN5Eigen8internal14aligned_mallocEy"
 "_ZN5Eigen8internal15call_assignmentINS_3MapINS_6MatrixIiLin1ELi1ELi0ELin1ELi1EEELi0ENS_6StrideILi0ELi0EEEEENS_14CwiseNullaryOpINS0_18scalar_constant_opIiEES4_EEEEvRT_RKT0_"
 "_ZN5Eigen8internal15partial_lu_implIdLi0EiE10blocked_luExxPdxPiRix"
 "_ZN5Eigen8internal15partial_lu_implIdLi0EiE12unblocked_luERNS_5BlockINS_3MapINS_6MatrixIdLin1ELin1ELi0ELin1ELin1EEELi0ENS_6StrideILi0ELi0EEEEELin1ELin1ELb0EEEPiRi"
 "_ZN5Eigen8internal16binary_evaluatorINS_13CwiseBinaryOpINS0_13scalar_sum_opIN5CppAD2ADINS5_INS5_IdEEEEEES8_EEKNS2_INS0_17scalar_product_opIS8_S8_EEKNS_14CwiseNullaryOpINS0_18scalar_constant_opIS8_EEKNS_6MatrixIS8_Lin1ELin1ELi0ELin1ELin1EEEEEKNS_12SparseMatrixIS8_Li0EiEEEESO_EENS0_13IteratorBasedESQ_S8_S8_E13InnerIteratorppEv"
 "_ZN5Eigen8internal16binary_evaluatorINS_13CwiseBinaryOpINS0_13scalar_sum_opIN5CppAD2ADINS5_INS5_IdEEEEEES8_EEKNS2_IS9_KNS2_INS0_17scalar_product_opIS8_S8_EEKNS_14CwiseNullaryOpINS0_18scalar_constant_opIS8_EEKNS_6MatrixIS8_Lin1ELin1ELi0ELin1ELin1EEEEEKNS_12SparseMatrixIS8_Li0EiEEEESO_EESM_EENS0_13IteratorBasedESS_S8_S8_E13InnerIteratorppEv"
 "_ZN5Eigen8internal16binary_evaluatorINS_13CwiseBinaryOpINS0_13scalar_sum_opIN5CppAD2ADINS5_INS5_IdEEEEEES8_EEKNS_12SparseMatrixIS8_Li0EiEEKNS2_INS0_17scalar_product_opIS8_S8_EEKNS_14CwiseNullaryOpINS0_18scalar_constant_opIS8_EEKNS_6MatrixIS8_Lin1ELin1ELi0ELin1ELin1EEEEESC_EEEENS0_13IteratorBasedESQ_S8_S8_E13InnerIteratorppEv"
 "_ZN5Eigen8internal16binary_evaluatorINS_13CwiseBinaryOpINS0_13scalar_sum_opIN5CppAD2ADINS5_INS5_IdEEEEEES8_EEKNS_12SparseMatrixIS8_Li0EiEESC_EENS0_13IteratorBasedESE_S8_S8_E13InnerIteratorppEv"
 "_ZN5Eigen8internal16binary_evaluatorINS_13CwiseBinaryOpINS0_13scalar_sum_opIN5CppAD2ADINS5_IdEEEES7_EEKNS2_INS0_17scalar_product_opIS7_S7_EEKNS_14CwiseNullaryOpINS0_18scalar_constant_opIS7_EEKNS_6MatrixIS7_Lin1ELin1ELi0ELin1ELin1EEEEEKNS_12SparseMatrixIS7_Li0EiEEEESN_EENS0_13IteratorBasedESP_S7_S7_E13InnerIteratorppEv"
 "_ZN5Eigen8internal16binary_evaluatorINS_13CwiseBinaryOpINS0_13scalar_sum_opIN5CppAD2ADINS5_IdEEEES7_EEKNS2_IS8_KNS2_INS0_17scalar_product_opIS7_S7_EEKNS_14CwiseNullaryOpINS0_18scalar_constant_opIS7_EEKNS_6MatrixIS7_Lin1ELin1ELi0ELin1ELin1EEEEEKNS_12SparseMatrixIS7_Li0EiEEEESN_EESL_EENS0_13IteratorBasedESR_S7_S7_E13InnerIteratorppEv"
 "_ZN5Eigen8internal16binary_evaluatorINS_13CwiseBinaryOpINS0_13scalar_sum_opIN5CppAD2ADINS5_IdEEEES7_EEKNS_12SparseMatrixIS7_Li0EiEEKNS2_INS0_17scalar_product_opIS7_S7_EEKNS_14CwiseNullaryOpINS0_18scalar_constant_opIS7_EEKNS_6MatrixIS7_Lin1ELin1ELi0ELin1ELin1EEEEESB_EEEENS0_13IteratorBasedESP_S7_S7_E13InnerIteratorppEv"
 "_ZN5Eigen8internal16binary_evaluatorINS_13CwiseBinaryOpINS0_13scalar_sum_opIN5CppAD2ADINS5_IdEEEES7_EEKNS_12SparseMatrixIS7_Li0EiEESB_EENS0_13IteratorBasedESD_S7_S7_E13InnerIteratorppEv"
 "_ZN5Eigen8internal16binary_evaluatorINS_13CwiseBinaryOpINS0_13scalar_sum_opIN5CppAD2ADIdEES6_EEKNS2_INS0_17scalar_product_opIS6_S6_EEKNS_14CwiseNullaryOpINS0_18scalar_constant_opIS6_EEKNS_6MatrixIS6_Lin1ELin1ELi0ELin1ELin1EEEEEKNS_12SparseMatrixIS6_Li0EiEEEESM_EENS0_13IteratorBasedESO_S6_S6_E13InnerIteratorppEv"
 "_ZN5Eigen8internal16binary_evaluatorINS_13CwiseBinaryOpINS0_13scalar_sum_opIN5CppAD2ADIdEES6_EEKNS2_IS7_KNS2_INS0_17scalar_product_opIS6_S6_EEKNS_14CwiseNullaryOpINS0_18scalar_constant_opIS6_EEKNS_6MatrixIS6_Lin1ELin1ELi0ELin1ELin1EEEEEKNS_12SparseMatrixIS6_Li0EiEEEESM_EESK_EENS0_13IteratorBasedESQ_S6_S6_E13InnerIteratorppEv"
 "_ZN5Eigen8internal16binary_evaluatorINS_13CwiseBinaryOpINS0_13scalar_sum_opIN5CppAD2ADIdEES6_EEKNS_12SparseMatrixIS6_Li0EiEEKNS2_INS0_17scalar_product_opIS6_S6_EEKNS_14CwiseNullaryOpINS0_18scalar_constant_opIS6_EEKNS_6MatrixIS6_Lin1ELin1ELi0ELin1ELin1EEEEESA_EEEENS0_13IteratorBasedESO_S6_S6_E13InnerIteratorppEv"
 "_ZN5Eigen8internal16binary_evaluatorINS_13CwiseBinaryOpINS0_13scalar_sum_opIN5CppAD2ADIdEES6_EEKNS_12SparseMatrixIS6_Li0EiEESA_EENS0_13IteratorBasedESC_S6_S6_E13InnerIteratorppEv"
 "_ZN5Eigen8internal16binary_evaluatorINS_13CwiseBinaryOpINS0_13scalar_sum_opIddEEKNS2_INS0_17scalar_product_opIddEEKNS_14CwiseNullaryOpINS0_18scalar_constant_opIdEEKNS_6MatrixIdLin1ELin1ELi0ELin1ELin1EEEEEKNS_12SparseMatrixIdLi0EiEEEESJ_EENS0_13IteratorBasedESL_ddE13InnerIteratorppEv"
 "_ZN5Eigen8internal16binary_evaluatorINS_13CwiseBinaryOpINS0_13scalar_sum_opIddEEKNS2_IS4_KNS2_INS0_17scalar_product_opIddEEKNS_14CwiseNullaryOpINS0_18scalar_constant_opIdEEKNS_6MatrixIdLin1ELin1ELi0ELin1ELin1EEEEEKNS_12SparseMatrixIdLi0EiEEEESJ_EESH_EENS0_13IteratorBasedESN_ddE13InnerIteratorppEv"
 "_ZN5Eigen8internal16binary_evaluatorINS_13CwiseBinaryOpINS0_13scalar_sum_opIddEEKNS_12SparseMatrixIdLi0EiEEKNS2_INS0_17scalar_product_opIddEEKNS_14CwiseNullaryOpINS0_18scalar_constant_opIdEEKNS_6MatrixIdLin1ELin1ELi0ELin1ELin1EEEEES7_EEEENS0_13IteratorBasedESL_ddE13InnerIteratorppEv"
 "_ZN5Eigen8internal16binary_evaluatorINS_13CwiseBinaryOpINS0_13scalar_sum_opIddEEKNS_12SparseMatrixIdLi0EiEES7_EENS0_13IteratorBasedES9_ddE13InnerIteratorppEv"
 "_ZN5Eigen8internal17CompressedStorageIN5CppAD2ADINS3_INS3_IdEEEEEEiE10reallocateEx"
 "_ZN5Eigen8internal17CompressedStorageIN5CppAD2ADINS3_INS3_IdEEEEEEiE6resizeExd"
 "_ZN5Eigen8internal17CompressedStorageIN5CppAD2ADINS3_INS3_IdEEEEEEiED1Ev"
 "_ZN5Eigen8internal17CompressedStorageIN5CppAD2ADINS3_IdEEEEiE10reallocateEx"
 "_ZN5Eigen8internal17CompressedStorageIN5CppAD2ADINS3_IdEEEEiE6resizeExd"
 "_ZN5Eigen8internal17CompressedStorageIN5CppAD2ADINS3_IdEEEEiED1Ev"
 "_ZN5Eigen8internal17CompressedStorageIN5CppAD2ADIdEEiE10reallocateEx"
 "_ZN5Eigen8internal17CompressedStorageIN5CppAD2ADIdEEiE6resizeExd"
 "_ZN5Eigen8internal17CompressedStorageIN5CppAD2ADIdEEiED1Ev"
 "_ZN5Eigen8internal17CompressedStorageIdiE10reallocateEx"
 "_ZN5Eigen8internal17CompressedStorageIdiE6resizeExd"
 "_ZN5Eigen8internal17CompressedStorageIdiED1Ev"
 "_ZN5Eigen8internal17set_from_tripletsIN9__gnu_cxx17__normal_iteratorIPNS_7TripletIN5CppAD2ADINS6_INS6_IdEEEEEEiEESt6vectorISA_SaISA_EEEENS_12SparseMatrixIS9_Li0EiEENS0_13scalar_sum_opIS9_S9_EEEEvRKT_SM_RT0_T1_"
 "_ZN5Eigen8internal17set_from_tripletsIN9__gnu_cxx17__normal_iteratorIPNS_7TripletIN5CppAD2ADINS6_IdEEEEiEESt6vectorIS9_SaIS9_EEEENS_12SparseMatrixIS8_Li0EiEENS0_13scalar_sum_opIS8_S8_EEEEvRKT_SL_RT0_T1_"
 "_ZN5Eigen8internal17set_from_tripletsIN9__gnu_cxx17__normal_iteratorIPNS_7TripletIN5CppAD2ADIdEEiEESt6vectorIS8_SaIS8_EEEENS_12SparseMatrixIS7_Li0EiEENS0_13scalar_sum_opIS7_S7_EEEEvRKT_SK_RT0_T1_"
 "_ZN5Eigen8internal17set_from_tripletsIN9__gnu_cxx17__normal_iteratorIPNS_7TripletIdiEESt6vectorIS5_SaIS5_EEEENS_12SparseMatrixIdLi0EiEENS0_13scalar_sum_opIddEEEEvRKT_SH_RT0_T1_"
 "_ZN5Eigen8internal19throw_std_bad_allocEv"
 "_ZN5Eigen8internal20manage_caching_sizesENS_6ActionEPxS2_S2_"
 "_ZN5Eigen8internal20permute_symm_to_symmILi1ELi2ENS_12SparseMatrixIN5CppAD2ADINS4_INS4_IdEEEEEELi0EiEELi0EEEvRKT1_RNS2_INS9_6ScalarEXT2_ENS9_12StorageIndexEEEPKSD_"
 "_ZN5Eigen8internal20permute_symm_to_symmILi1ELi2ENS_12SparseMatrixIN5CppAD2ADINS4_IdEEEELi0EiEELi0EEEvRKT1_RNS2_INS8_6ScalarEXT2_ENS8_12StorageIndexEEEPKSC_"
 "_ZN5Eigen8internal20permute_symm_to_symmILi1ELi2ENS_12SparseMatrixIN5CppAD2ADIdEELi0EiEELi0EEEvRKT1_RNS2_INS7_6ScalarEXT2_ENS7_12StorageIndexEEEPKSB_"
 "_ZN5Eigen8internal20permute_symm_to_symmILi1ELi2ENS_12SparseMatrixIdLi0EiEELi0EEEvRKT1_RNS2_INS4_6ScalarEXT2_ENS4_12StorageIndexEEEPKS8_"
 "_ZN5Eigen8internal23assign_sparse_to_sparseINS_12SparseMatrixIN5CppAD2ADINS4_INS4_IdEEEEEELi0EiEENS_13CwiseBinaryOpINS0_13scalar_sum_opIS7_S7_EEKNS9_ISB_KNS9_INS0_17scalar_product_opIS7_S7_EEKNS_14CwiseNullaryOpINS0_18scalar_constant_opIS7_EEKNS_6MatrixIS7_Lin1ELin1ELi0ELin1ELin1EEEEEKS8_EESO_EESM_EEEEvRT_RKT0_"
 "_ZN5Eigen8internal23assign_sparse_to_sparseINS_12SparseMatrixIN5CppAD2ADINS4_INS4_IdEEEEEELi0EiEENS_13CwiseBinaryOpINS0_13scalar_sum_opIS7_S7_EEKS8_KNS9_INS0_17scalar_product_opIS7_S7_EEKNS_14CwiseNullaryOpINS0_18scalar_constant_opIS7_EEKNS_6MatrixIS7_Lin1ELin1ELi0ELin1ELin1EEEEESC_EEEEEEvRT_RKT0_"
 "_ZN5Eigen8internal23assign_sparse_to_sparseINS_12SparseMatrixIN5CppAD2ADINS4_INS4_IdEEEEEELi0EiEENS_13CwiseBinaryOpINS0_13scalar_sum_opIS7_S7_EEKS8_SC_EEEEvRT_RKT0_"
 "_ZN5Eigen8internal23assign_sparse_to_sparseINS_12SparseMatrixIN5CppAD2ADINS4_INS4_IdEEEEEELi0EiEENS_13CwiseBinaryOpINS0_17scalar_product_opIS7_S7_EEKNS_7ProductINSC_INS_9TransposeIS8_EES8_Li2EEES8_Li2EEEKNS_14CwiseNullaryOpINS0_18scalar_constant_opIS7_EEKNS_6MatrixIS7_Lin1ELin1ELi0ELin1ELin1EEEEEEEEEvRT_RKT0_"
 "_ZN5Eigen8internal23assign_sparse_to_sparseINS_12SparseMatrixIN5CppAD2ADINS4_INS4_IdEEEEEELi0EiEENS_7ProductINS9_IS8_S8_Li2EEES8_Li2EEEEEvRT_RKT0_"
 "_ZN5Eigen8internal23assign_sparse_to_sparseINS_12SparseMatrixIN5CppAD2ADINS4_INS4_IdEEEEEELi0EiEENS_7ProductINS_9TransposeIS8_EES8_Li2EEEEEvRT_RKT0_"
 "_ZN5Eigen8internal23assign_sparse_to_sparseINS_12SparseMatrixIN5CppAD2ADINS4_INS4_IdEEEEEELi0EiEENS_7ProductIS8_S8_Li2EEEEEvRT_RKT0_"
 "_ZN5Eigen8internal23assign_sparse_to_sparseINS_12SparseMatrixIN5CppAD2ADINS4_INS4_IdEEEEEELi0EiEES8_EEvRT_RKT0_"
 "_ZN5Eigen8internal23assign_sparse_to_sparseINS_12SparseMatrixIN5CppAD2ADINS4_IdEEEELi0EiEENS_13CwiseBinaryOpINS0_13scalar_sum_opIS6_S6_EEKNS8_ISA_KNS8_INS0_17scalar_product_opIS6_S6_EEKNS_14CwiseNullaryOpINS0_18scalar_constant_opIS6_EEKNS_6MatrixIS6_Lin1ELin1ELi0ELin1ELin1EEEEEKS7_EESN_EESL_EEEEvRT_RKT0_"
 "_ZN5Eigen8internal23assign_sparse_to_sparseINS_12SparseMatrixIN5CppAD2ADINS4_IdEEEELi0EiEENS_13CwiseBinaryOpINS0_13scalar_sum_opIS6_S6_EEKS7_KNS8_INS0_17scalar_product_opIS6_S6_EEKNS_14CwiseNullaryOpINS0_18scalar_constant_opIS6_EEKNS_6MatrixIS6_Lin1ELin1ELi0ELin1ELin1EEEEESB_EEEEEEvRT_RKT0_"
 "_ZN5Eigen8internal23assign_sparse_to_sparseINS_12SparseMatrixIN5CppAD2ADINS4_IdEEEELi0EiEENS_13CwiseBinaryOpINS0_13scalar_sum_opIS6_S6_EEKS7_SB_EEEEvRT_RKT0_"
 "_ZN5Eigen8internal23assign_sparse_to_sparseINS_12SparseMatrixIN5CppAD2ADINS4_IdEEEELi0EiEENS_13CwiseBinaryOpINS0_17scalar_product_opIS6_S6_EEKNS_7ProductINSB_INS_9TransposeIS7_EES7_Li2EEES7_Li2EEEKNS_14CwiseNullaryOpINS0_18scalar_constant_opIS6_EEKNS_6MatrixIS6_Lin1ELin1ELi0ELin1ELin1EEEEEEEEEvRT_RKT0_"
 "_ZN5Eigen8internal23assign_sparse_to_sparseINS_12SparseMatrixIN5CppAD2ADINS4_IdEEEELi0EiEENS_7ProductINS8_IS7_S7_Li2EEES7_Li2EEEEEvRT_RKT0_"
 "_ZN5Eigen8internal23assign_sparse_to_sparseINS_12SparseMatrixIN5CppAD2ADINS4_IdEEEELi0EiEENS_7ProductINS_9TransposeIS7_EES7_Li2EEEEEvRT_RKT0_"
 "_ZN5Eigen8internal23assign_sparse_to_sparseINS_12SparseMatrixIN5CppAD2ADINS4_IdEEEELi0EiEENS_7ProductIS7_S7_Li2EEEEEvRT_RKT0_"
 "_ZN5Eigen8internal23assign_sparse_to_sparseINS_12SparseMatrixIN5CppAD2ADINS4_IdEEEELi0EiEES7_EEvRT_RKT0_"
 "_ZN5Eigen8internal23assign_sparse_to_sparseINS_12SparseMatrixIN5CppAD2ADIdEELi0EiEENS_13CwiseBinaryOpINS0_13scalar_sum_opIS5_S5_EEKNS7_IS9_KNS7_INS0_17scalar_product_opIS5_S5_EEKNS_14CwiseNullaryOpINS0_18scalar_constant_opIS5_EEKNS_6MatrixIS5_Lin1ELin1ELi0ELin1ELin1EEEEEKS6_EESM_EESK_EEEEvRT_RKT0_"
 "_ZN5Eigen8internal23assign_sparse_to_sparseINS_12SparseMatrixIN5CppAD2ADIdEELi0EiEENS_13CwiseBinaryOpINS0_13scalar_sum_opIS5_S5_EEKS6_KNS7_INS0_17scalar_product_opIS5_S5_EEKNS_14CwiseNullaryOpINS0_18scalar_constant_opIS5_EEKNS_6MatrixIS5_Lin1ELin1ELi0ELin1ELin1EEEEESA_EEEEEEvRT_RKT0_"
 "_ZN5Eigen8internal23assign_sparse_to_sparseINS_12SparseMatrixIN5CppAD2ADIdEELi0EiEENS_13CwiseBinaryOpINS0_13scalar_sum_opIS5_S5_EEKS6_SA_EEEEvRT_RKT0_"
 "_ZN5Eigen8internal23assign_sparse_to_sparseINS_12SparseMatrixIN5CppAD2ADIdEELi0EiEENS_13CwiseBinaryOpINS0_17scalar_product_opIS5_S5_EEKNS_7ProductINSA_INS_9TransposeIS6_EES6_Li2EEES6_Li2EEEKNS_14CwiseNullaryOpINS0_18scalar_constant_opIS5_EEKNS_6MatrixIS5_Lin1ELin1ELi0ELin1ELin1EEEEEEEEEvRT_RKT0_"
 "_ZN5Eigen8internal23assign_sparse_to_sparseINS_12SparseMatrixIN5CppAD2ADIdEELi0EiEENS_7ProductINS7_IS6_S6_Li2EEES6_Li2EEEEEvRT_RKT0_"
 "_ZN5Eigen8internal23assign_sparse_to_sparseINS_12SparseMatrixIN5CppAD2ADIdEELi0EiEENS_7ProductINS_9TransposeIS6_EES6_Li2EEEEEvRT_RKT0_"
 "_ZN5Eigen8internal23assign_sparse_to_sparseINS_12SparseMatrixIN5CppAD2ADIdEELi0EiEENS_7ProductIS6_S6_Li2EEEEEvRT_RKT0_"
 "_ZN5Eigen8internal23assign_sparse_to_sparseINS_12SparseMatrixIN5CppAD2ADIdEELi0EiEES6_EEvRT_RKT0_"
 "_ZN5Eigen8internal23assign_sparse_to_sparseINS_12SparseMatrixIdLi0EiEENS_13CwiseBinaryOpINS0_13scalar_sum_opIddEEKNS4_IS6_KNS4_INS0_17scalar_product_opIddEEKNS_14CwiseNullaryOpINS0_18scalar_constant_opIdEEKNS_6MatrixIdLin1ELin1ELi0ELin1ELin1EEEEEKS3_EESJ_EESH_EEEEvRT_RKT0_"
 "_ZN5Eigen8internal23assign_sparse_to_sparseINS_12SparseMatrixIdLi0EiEENS_13CwiseBinaryOpINS0_13scalar_sum_opIddEEKS3_KNS4_INS0_17scalar_product_opIddEEKNS_14CwiseNullaryOpINS0_18scalar_constant_opIdEEKNS_6MatrixIdLin1ELin1ELi0ELin1ELin1EEEEES7_EEEEEEvRT_RKT0_"
 "_ZN5Eigen8internal23assign_sparse_to_sparseINS_12SparseMatrixIdLi0EiEENS_13CwiseBinaryOpINS0_13scalar_sum_opIddEEKS3_S7_EEEEvRT_RKT0_"
 "_ZN5Eigen8internal23assign_sparse_to_sparseINS_12SparseMatrixIdLi0EiEENS_13CwiseBinaryOpINS0_17scalar_product_opIddEEKNS_7ProductINS7_INS_9TransposeIS3_EES3_Li2EEES3_Li2EEEKNS_14CwiseNullaryOpINS0_18scalar_constant_opIdEEKNS_6MatrixIdLin1ELin1ELi0ELin1ELin1EEEEEEEEEvRT_RKT0_"
 "_ZN5Eigen8internal23assign_sparse_to_sparseINS_12SparseMatrixIdLi0EiEENS_14TriangularViewIKS3_Lj1EEEEEvRT_RKT0_"
 "_ZN5Eigen8internal23assign_sparse_to_sparseINS_12SparseMatrixIdLi0EiEENS_7ProductINS4_IS3_S3_Li2EEES3_Li2EEEEEvRT_RKT0_"
 "_ZN5Eigen8internal23assign_sparse_to_sparseINS_12SparseMatrixIdLi0EiEENS_7ProductINS_9TransposeIS3_EES3_Li2EEEEEvRT_RKT0_"
 "_ZN5Eigen8internal23assign_sparse_to_sparseINS_12SparseMatrixIdLi0EiEENS_7ProductIS3_S3_Li2EEEEEvRT_RKT0_"
 "_ZN5Eigen8internal23assign_sparse_to_sparseINS_12SparseMatrixIdLi0EiEES3_EEvRT_RKT0_"
 "_ZN5Eigen8internal23minimum_degree_orderingIN5CppAD2ADINS3_INS3_IdEEEEEEiEEvRNS_12SparseMatrixIT_Li0ET0_EERNS_17PermutationMatrixILin1ELin1ES9_EE"
 "_ZN5Eigen8internal23minimum_degree_orderingIN5CppAD2ADINS3_IdEEEEiEEvRNS_12SparseMatrixIT_Li0ET0_EERNS_17PermutationMatrixILin1ELin1ES8_EE"
 "_ZN5Eigen8internal23minimum_degree_orderingIN5CppAD2ADIdEEiEEvRNS_12SparseMatrixIT_Li0ET0_EERNS_17PermutationMatrixILin1ELin1ES7_EE"
 "_ZN5Eigen8internal23minimum_degree_orderingIdiEEvRNS_12SparseMatrixIT_Li0ET0_EERNS_17PermutationMatrixILin1ELin1ES4_EE"
 "_ZN5Eigen8internal23triangular_solve_matrixIdxLi1ELi2ELb0ELi0ELi0ELi1EE3runExxPKdxPdxxRNS0_15level3_blockingIddEE"
 "_ZN5Eigen8internal23triangular_solve_matrixIdxLi1ELi5ELb0ELi0ELi0ELi1EE3runExxPKdxPdxxRNS0_15level3_blockingIddEE"
 "_ZN5Eigen8internal24permute_symm_to_fullsymmILi1ENS_12SparseMatrixIN5CppAD2ADINS4_INS4_IdEEEEEELi0EiEELi0EEEvRKT0_RNS2_INS9_6ScalarEXT1_ENS9_12StorageIndexEEEPKSD_"
 "_ZN5Eigen8internal24permute_symm_to_fullsymmILi1ENS_12SparseMatrixIN5CppAD2ADINS4_IdEEEELi0EiEELi0EEEvRKT0_RNS2_INS8_6ScalarEXT1_ENS8_12StorageIndexEEEPKSC_"
 "_ZN5Eigen8internal24permute_symm_to_fullsymmILi1ENS_12SparseMatrixIN5CppAD2ADIdEELi0EiEELi0EEEvRKT0_RNS2_INS7_6ScalarEXT1_ENS7_12StorageIndexEEEPKSB_"
 "_ZN5Eigen8internal24permute_symm_to_fullsymmILi1ENS_12SparseMatrixIdLi0EiEELi0EEEvRKT0_RNS2_INS4_6ScalarEXT1_ENS4_12StorageIndexEEEPKS8_"
 "_ZN5Eigen8internal25ordering_helper_at_plus_aINS_12SparseMatrixIN5CppAD2ADINS4_INS4_IdEEEEEELi0EiEEEEvRKT_RS9_"
 "_ZN5Eigen8internal25ordering_helper_at_plus_aINS_12SparseMatrixIN5CppAD2ADINS4_IdEEEELi0EiEEEEvRKT_RS8_"
 "_ZN5Eigen8internal25ordering_helper_at_plus_aINS_12SparseMatrixIN5CppAD2ADIdEELi0EiEEEEvRKT_RS7_"
 "_ZN5Eigen8internal25ordering_helper_at_plus_aINS_12SparseMatrixIdLi0EiEEEEvRKT_RS4_"
 "_ZN5Eigen8internal26call_dense_assignment_loopINS_5ArrayIdLin1ELi1ELi0ELin1ELi1EEENS_14CwiseNullaryOpINS0_18scalar_constant_opIdEES3_EENS0_9assign_opIddEEEEvRT_RKT0_RKT1_"
 "_ZN5Eigen8internal26call_dense_assignment_loopINS_5ArrayIdLin1ELi1ELi0ELin1ELi1EEES3_NS0_9assign_opIddEEEEvRT_RKT0_RKT1_"
 "_ZN5Eigen8internal26call_dense_assignment_loopINS_5ArrayIiLin1ELi1ELi0ELin1ELi1EEES3_NS0_9assign_opIiiEEEEvRT_RKT0_RKT1_"
 "_ZN5Eigen8internal26call_dense_assignment_loopINS_6MatrixIdLin1ELin1ELi0ELin1ELin1EEES3_NS0_9assign_opIddEEEEvRT_RKT0_RKT1_"
 "_ZN5Eigen8internal26call_dense_assignment_loopINS_6MatrixIiLin1ELi1ELi0ELin1ELi1EEENS_14CwiseNullaryOpINS0_18scalar_constant_opIiEES3_EENS0_9assign_opIiiEEEEvRT_RKT0_RKT1_"
 "_ZN5Eigen8internal26outer_product_selector_runINS_5BlockINS2_INS_3MapINS_6MatrixIdLin1ELin1ELi0ELin1ELin1EEELi0ENS_6StrideILi0ELi0EEEEELin1ELin1ELb0EEELin1ELin1ELb0EEENS2_INS2_IS9_Lin1ELi1ELb1EEELin1ELi1ELb0EEENS2_INS2_IS9_Li1ELin1ELb0EEELi1ELin1ELb0EEENS0_20generic_product_implISC_SE_NS_10DenseShapeESG_Li5EE3subEEEvRT_RKT0_RKT1_RKT2_RKNS0_10false_typeE"
 "_ZN5Eigen8internal28conditional_aligned_new_autoIN5CppAD2ADINS3_INS3_IdEEEEEELb1EEEPT_y"
 "_ZN5Eigen8internal28conditional_aligned_new_autoIN5CppAD2ADINS3_IdEEEELb1EEEPT_y"
 "_ZN5Eigen8internal28conditional_aligned_new_autoIN5CppAD2ADIdEELb1EEEPT_y"
 "_ZN5Eigen8internal29general_matrix_matrix_productIxdLi0ELb0EdLi0ELb0ELi0ELi1EE3runExxxPKdxS4_xPdxxdRNS0_15level3_blockingIddEEPNS0_16GemmParallelInfoIxEE"
 "_ZN5Eigen8internal29general_matrix_vector_productIxN5CppAD2ADINS3_IdEEEENS0_22const_blas_data_mapperIS5_xLi0EEELi0ELb0ES5_NS6_IS5_xLi1EEELb0ELi0EE3runExxRKS7_RKS8_PS5_xS5_"
 "_ZN5Eigen8internal29general_matrix_vector_productIxN5CppAD2ADIdEENS0_22const_blas_data_mapperIS4_xLi0EEELi0ELb0ES4_NS5_IS4_xLi1EEELb0ELi0EE3runExxRKS6_RKS7_PS4_xS4_"
 "_ZN5Eigen8internal29general_matrix_vector_productIxdNS0_22const_blas_data_mapperIdxLi0EEELi0ELb0EdNS2_IdxLi1EEELb0ELi0EE3runExxRKS3_RKS4_Pdxd"
 "_ZN5Eigen8internal37evaluateProductBlockingSizesHeuristicIddLi1ExEEvRT2_S3_S3_S2_"
 "_ZN5Eigen8internal37evaluateProductBlockingSizesHeuristicIddLi4ExEEvRT2_S3_S3_S2_"
 "_ZN5Eigen8internal43conservative_sparse_sparse_product_selectorINS_12SparseMatrixIN5CppAD2ADINS4_INS4_IdEEEEEELi0EiEES8_S8_Li0ELi0ELi0EE3runERKS8_SB_RS8_"
 "_ZN5Eigen8internal43conservative_sparse_sparse_product_selectorINS_12SparseMatrixIN5CppAD2ADINS4_IdEEEELi0EiEES7_S7_Li0ELi0ELi0EE3runERKS7_SA_RS7_"
 "_ZN5Eigen8internal43conservative_sparse_sparse_product_selectorINS_12SparseMatrixIN5CppAD2ADIdEELi0EiEES6_S6_Li0ELi0ELi0EE3runERKS6_S9_RS6_"
 "_ZN5Eigen8internal43conservative_sparse_sparse_product_selectorINS_12SparseMatrixIdLi0EiEES3_S3_Li0ELi0ELi0EE3runERKS3_S6_RS3_"
 "_ZN5Eigen8internal7cs_tdfsIiEET_S2_S2_PS2_PKS2_S3_S3_"
 "_ZN5Eigen9DenseBaseINS_5ArrayIN5CppAD2ADINS3_INS3_IdEEEEEELin1ELi1ELi0ELin1ELi1EEEE7setZeroEv"
 "_ZN5Eigen9DenseBaseINS_5ArrayIN5CppAD2ADINS3_IdEEEELin1ELi1ELi0ELin1ELi1EEEE11setConstantERKS5_"
 "_ZN5Eigen9DenseBaseINS_5ArrayIN5CppAD2ADIdEELin1ELi1ELi0ELin1ELi1EEEE11setConstantERKS4_"
 "_ZN6R_inla12spde_aniso_tIN5CppAD2ADINS2_INS2_IdEEEEEEEC1EP7SEXPREC"
 "_ZN6R_inla12spde_aniso_tIN5CppAD2ADINS2_INS2_IdEEEEEEEC1ERKS6_"
 "_ZN6R_inla12spde_aniso_tIN5CppAD2ADINS2_INS2_IdEEEEEEED1Ev"
 "_ZN6R_inla12spde_aniso_tIN5CppAD2ADINS2_IdEEEEEC1EP7SEXPREC"
 "_ZN6R_inla12spde_aniso_tIN5CppAD2ADINS2_IdEEEEEC1ERKS5_"
 "_ZN6R_inla12spde_aniso_tIN5CppAD2ADINS2_IdEEEEED1Ev"
 "_ZN6R_inla12spde_aniso_tIN5CppAD2ADIdEEEC1EP7SEXPREC"
 "_ZN6R_inla12spde_aniso_tIN5CppAD2ADIdEEEC1ERKS4_"
 "_ZN6R_inla12spde_aniso_tIN5CppAD2ADIdEEED1Ev"
 "_ZN6R_inla12spde_aniso_tIdEC1EP7SEXPREC"
 "_ZN6R_inla12spde_aniso_tIdEC1ERKS1_"
 "_ZN6R_inla12spde_aniso_tIdED1Ev"
 "_ZN6R_inla6Q_spdeIN5CppAD2ADINS2_INS2_IdEEEEEEEEN5Eigen12SparseMatrixIT_Li0EiEENS_12spde_aniso_tIS8_EES8_N8tmbutils6matrixIS8_EE"
 "_ZN6R_inla6Q_spdeIN5CppAD2ADINS2_INS2_IdEEEEEEEEN5Eigen12SparseMatrixIT_Li0EiEENS_6spde_tIS8_EES8_"
 "_ZN6R_inla6Q_spdeIN5CppAD2ADINS2_IdEEEEEEN5Eigen12SparseMatrixIT_Li0EiEENS_12spde_aniso_tIS7_EES7_N8tmbutils6matrixIS7_EE"
 "_ZN6R_inla6Q_spdeIN5CppAD2ADINS2_IdEEEEEEN5Eigen12SparseMatrixIT_Li0EiEENS_6spde_tIS7_EES7_"
 "_ZN6R_inla6Q_spdeIN5CppAD2ADIdEEEEN5Eigen12SparseMatrixIT_Li0EiEENS_12spde_aniso_tIS6_EES6_N8tmbutils6matrixIS6_EE"
 "_ZN6R_inla6Q_spdeIN5CppAD2ADIdEEEEN5Eigen12SparseMatrixIT_Li0EiEENS_6spde_tIS6_EES6_"
 "_ZN6R_inla6Q_spdeIdEEN5Eigen12SparseMatrixIT_Li0EiEENS_12spde_aniso_tIS3_EES3_N8tmbutils6matrixIS3_EE"
 "_ZN6R_inla6Q_spdeIdEEN5Eigen12SparseMatrixIT_Li0EiEENS_6spde_tIS3_EES3_"
 "_ZN6R_inla6spde_tIN5CppAD2ADINS2_INS2_IdEEEEEEEC1EP7SEXPREC"
 "_ZN6R_inla6spde_tIN5CppAD2ADINS2_INS2_IdEEEEEEEC1ERKS6_"
 "_ZN6R_inla6spde_tIN5CppAD2ADINS2_INS2_IdEEEEEEED1Ev"
 "_ZN6R_inla6spde_tIN5CppAD2ADINS2_IdEEEEEC1EP7SEXPREC"
 "_ZN6R_inla6spde_tIN5CppAD2ADINS2_IdEEEEEC1ERKS5_"
 "_ZN6R_inla6spde_tIN5CppAD2ADINS2_IdEEEEED1Ev"
 "_ZN6R_inla6spde_tIN5CppAD2ADIdEEEC1EP7SEXPREC"
 "_ZN6R_inla6spde_tIN5CppAD2ADIdEEEC1ERKS4_"
 "_ZN6R_inla6spde_tIN5CppAD2ADIdEEED1Ev"
 "_ZN6R_inla6spde_tIdEC1EP7SEXPREC"
 "_ZN6R_inla6spde_tIdEC1ERKS1_"
 "_ZN6R_inla6spde_tIdED1Ev"
 "_ZN6atomic12dynamic_data14double_to_sexpEd"
 "_ZN6atomic12dynamic_data14sexp_to_doubleEP7SEXPREC"
 "_ZN6atomic12dynamic_data17charptr_to_doubleEPKc"
 "_ZN6atomic12dynamic_data17double_to_charptrEd"
 "_ZN6atomic12multi_forrevIdEEPN5CppAD5ADFunIdEEPNS2_IT_EEN8tmbutils6vectorIdEE"
 "_ZN6atomic12robust_utils12logspace_addINS_7tiny_ad8variableILi1ELi1EdEEEET_RKS5_S7_"
 "_ZN6atomic12robust_utils12logspace_addINS_7tiny_ad8variableILi2ELi1EdEEEET_RKS5_S7_"
 "_ZN6atomic12robust_utils12logspace_addINS_7tiny_ad8variableILi3ELi1EdEEEET_RKS5_S7_"
 "_ZN6atomic12robust_utils13dbinom_robustINS_7tiny_ad8variableILi2ELi1EdEEEET_S5_S5_S5_i"
 "_ZN6atomic12robust_utils13dbinom_robustINS_7tiny_ad8variableILi3ELi1EdEEEET_S5_S5_S5_i"
 "_ZN6atomic13compois_utils8simulateEdd"
 "_ZN6atomic13convol2d_workERKN5Eigen6MatrixIdLin1ELin1ELi0ELin1ELin1EEES4_"
 "_ZN6atomic14atomicD_lgammaIN5CppAD2ADINS2_IdEEEEE14rev_sparse_jacEyRKNS1_6vectorISt3setIySt4lessIyESaIyEEEERSC_"
 "_ZN6atomic14atomicD_lgammaIN5CppAD2ADINS2_IdEEEEE14rev_sparse_jacEyRKNS1_6vectorIbEERS7_"
 "_ZN6atomic14atomicD_lgammaIN5CppAD2ADINS2_IdEEEEE7forwardEyyRKNS1_6vectorIbEERS7_RKNS6_IS4_EERSB_"
 "_ZN6atomic14atomicD_lgammaIN5CppAD2ADINS2_IdEEEEE7reverseEyRKNS1_6vectorIS4_EES9_RS7_S9_"
 "_ZN6atomic14atomicD_lgammaIN5CppAD2ADINS2_IdEEEEED0Ev"
 "_ZN6atomic14atomicD_lgammaIN5CppAD2ADINS2_IdEEEEED1Ev"
 "_ZN6atomic14atomicD_lgammaIN5CppAD2ADIdEEE14rev_sparse_jacEyRKNS1_6vectorISt3setIySt4lessIyESaIyEEEERSB_"
 "_ZN6atomic14atomicD_lgammaIN5CppAD2ADIdEEE14rev_sparse_jacEyRKNS1_6vectorIbEERS6_"
 "_ZN6atomic14atomicD_lgammaIN5CppAD2ADIdEEE7forwardEyyRKNS1_6vectorIbEERS6_RKNS5_IS3_EERSA_"
 "_ZN6atomic14atomicD_lgammaIN5CppAD2ADIdEEE7reverseEyRKNS1_6vectorIS3_EES8_RS6_S8_"
 "_ZN6atomic14atomicD_lgammaIN5CppAD2ADIdEEED0Ev"
 "_ZN6atomic14atomicD_lgammaIN5CppAD2ADIdEEED1Ev"
 "_ZN6atomic14atomicD_lgammaIdE14rev_sparse_jacEyRKN5CppAD6vectorISt3setIySt4lessIyESaIyEEEERS9_"
 "_ZN6atomic14atomicD_lgammaIdE14rev_sparse_jacEyRKN5CppAD6vectorIbEERS4_"
 "_ZN6atomic14atomicD_lgammaIdE7forwardEyyRKN5CppAD6vectorIbEERS4_RKNS3_IdEERS8_"
 "_ZN6atomic14atomicD_lgammaIdE7reverseEyRKN5CppAD6vectorIdEES6_RS4_S6_"
 "_ZN6atomic14atomicD_lgammaIdED0Ev"
 "_ZN6atomic14atomicD_lgammaIdED1Ev"
 "_ZN6atomic14nestedTriangleILi1EEC1EN8tmbutils6vectorINS2_6matrixIdEEEE"
 "_ZN6atomic14nestedTriangleILi2EEC1EN8tmbutils6vectorINS2_6matrixIdEEEE"
 "_ZN6atomic17log_dbinom_robustIN5CppAD2ADINS2_IdEEEEEENS1_6vectorINS2_IT_EEEERKS8_"
 "_ZN6atomic17log_dbinom_robustIN5CppAD2ADIdEEEENS1_6vectorINS2_IT_EEEERKS7_"
 "_ZN6atomic17log_dbinom_robustIN5CppAD2ADIdEEEEvRKNS1_6vectorINS2_IT_EEEERS7_"
 "_ZN6atomic17log_dbinom_robustIdEEN5CppAD6vectorINS1_2ADIT_EEEERKS6_"
 "_ZN6atomic17log_dbinom_robustIdEEN5CppAD6vectorIdEERKNS2_IT_EE"
 "_ZN6atomic17log_dbinom_robustIdEEvRKN5CppAD6vectorINS1_2ADIT_EEEERS6_"
 "_ZN6atomic17log_dbinom_robustIdEEvRKN5CppAD6vectorIT_EERS4_"
 "_ZN6atomic23atomicFunctionGeneratedE"
 "_ZN6atomic23atomiclog_dbinom_robustIN5CppAD2ADINS2_IdEEEEE14rev_sparse_jacEyRKNS1_6vectorISt3setIySt4lessIyESaIyEEEERSC_"
 "_ZN6atomic23atomiclog_dbinom_robustIN5CppAD2ADINS2_IdEEEEE14rev_sparse_jacEyRKNS1_6vectorIbEERS7_"
 "_ZN6atomic23atomiclog_dbinom_robustIN5CppAD2ADINS2_IdEEEEE7forwardEyyRKNS1_6vectorIbEERS7_RKNS6_IS4_EERSB_"
 "_ZN6atomic23atomiclog_dbinom_robustIN5CppAD2ADINS2_IdEEEEE7reverseEyRKNS1_6vectorIS4_EES9_RS7_S9_"
 "_ZN6atomic23atomiclog_dbinom_robustIN5CppAD2ADINS2_IdEEEEED0Ev"
 "_ZN6atomic23atomiclog_dbinom_robustIN5CppAD2ADINS2_IdEEEEED1Ev"
 "_ZN6atomic23atomiclog_dbinom_robustIN5CppAD2ADIdEEE14rev_sparse_jacEyRKNS1_6vectorISt3setIySt4lessIyESaIyEEEERSB_"
 "_ZN6atomic23atomiclog_dbinom_robustIN5CppAD2ADIdEEE14rev_sparse_jacEyRKNS1_6vectorIbEERS6_"
 "_ZN6atomic23atomiclog_dbinom_robustIN5CppAD2ADIdEEE7forwardEyyRKNS1_6vectorIbEERS6_RKNS5_IS3_EERSA_"
 "_ZN6atomic23atomiclog_dbinom_robustIN5CppAD2ADIdEEE7reverseEyRKNS1_6vectorIS3_EES8_RS6_S8_"
 "_ZN6atomic23atomiclog_dbinom_robustIN5CppAD2ADIdEEED0Ev"
 "_ZN6atomic23atomiclog_dbinom_robustIN5CppAD2ADIdEEED1Ev"
 "_ZN6atomic23atomiclog_dbinom_robustIdE14rev_sparse_jacEyRKN5CppAD6vectorISt3setIySt4lessIyESaIyEEEERS9_"
 "_ZN6atomic23atomiclog_dbinom_robustIdE14rev_sparse_jacEyRKN5CppAD6vectorIbEERS4_"
 "_ZN6atomic23atomiclog_dbinom_robustIdE7forwardEyyRKN5CppAD6vectorIbEERS4_RKNS3_IdEERS8_"
 "_ZN6atomic23atomiclog_dbinom_robustIdE7reverseEyRKN5CppAD6vectorIdEES6_RS4_S6_"
 "_ZN6atomic23atomiclog_dbinom_robustIdED0Ev"
 "_ZN6atomic23atomiclog_dbinom_robustIdED1Ev"
 "_ZN6atomic4expmEN8tmbutils6vectorINS0_6matrixIdEEEE"
 "_ZN6atomic4expmINS_14nestedTriangleILi0EEEEET_S3_"
 "_ZN6atomic4expmINS_14nestedTriangleILi1EEEEET_S3_"
 "_ZN6atomic4expmINS_14nestedTriangleILi2EEEEET_S3_"
 "_ZN6atomic4expmINS_14nestedTriangleILi3EEEEET_S3_"
 "_ZN6atomic5BlockIdE11addIdentityEv"
 "_ZN6atomic5BlockIdE4normEv"
 "_ZN6atomic5BlockIdE5scaleEd"
 "_ZN6atomic5BlockIdEmlES1_"
 "_ZN6atomic5Rmath15inv_incpl_gammaEddd"
 "_ZN6atomic5Rmath19D_incpl_gamma_shapeEdddd"
 "_ZN6atomic5Rmath29integrand_D_incpl_gamma_shapeEPdiPv"
 "_ZN6atomic5Rmath8D_lgammaEdd"
 "_ZN6atomic6matmulIdEEN8tmbutils6matrixIT_EES4_S4_"
 "_ZN6atomic7tiny_ad3expINS0_8variableILi1ELi1EdEENS_8tiny_vecIS3_Li1EEEEENS0_2adIT_T0_EERKS9_"
 "_ZN6atomic7tiny_ad3expINS0_8variableILi2ELi1EdEENS_8tiny_vecIS3_Li1EEEEENS0_2adIT_T0_EERKS9_"
 "_ZN6atomic7tiny_ad3expIdNS_8tiny_vecIdLi1EEEEENS0_2adIT_T0_EERKS7_"
 "_ZN6atomic7tiny_ad5log1pINS0_8variableILi1ELi1EdEENS_8tiny_vecIS3_Li1EEEEENS0_2adIT_T0_EERKS9_"
 "_ZN6atomic7tiny_ad5log1pINS0_8variableILi2ELi1EdEENS_8tiny_vecIS3_Li1EEEEENS0_2adIT_T0_EERKS9_"
 "_ZN6atomic7tiny_ad6lgammaERKd"
 "_ZN6atomic7tiny_ad6lgammaILi0EEEdRKd"
 "_ZN6atomic7tiny_ad8asDoubleEd"
 "_ZN6atomic7tiny_ad8isfiniteERKd"
 "_ZN6atomic7tiny_ad8max_fabsEd"
 "_ZN6atomic8D_lgammaIN5CppAD2ADIdEEEENS1_6vectorINS2_IT_EEEERKS7_"
 "_ZN6atomic8D_lgammaIN5CppAD2ADIdEEEEvRKNS1_6vectorINS2_IT_EEEERS7_"
 "_ZN6atomic8D_lgammaIdEEN5CppAD6vectorINS1_2ADIT_EEEERKS6_"
 "_ZN6atomic8D_lgammaIdEEvRKN5CppAD6vectorINS1_2ADIT_EEEERS6_"
 "_ZN6atomic8TriangleINS_14nestedTriangleILi0EEEE11addIdentityEv"
 "_ZN6atomic8TriangleINS_14nestedTriangleILi0EEEE5scaleEd"
 "_ZN6atomic8TriangleINS_14nestedTriangleILi0EEEE7inverseEv"
 "_ZN6atomic8TriangleINS_14nestedTriangleILi0EEEEC2ERKS3_"
 "_ZN6atomic8TriangleINS_14nestedTriangleILi0EEEEmlES3_"
 "_ZN6atomic8TriangleINS_14nestedTriangleILi0EEEEpLES3_"
 "_ZN6atomic8TriangleINS_14nestedTriangleILi1EEEE11addIdentityEv"
 "_ZN6atomic8TriangleINS_14nestedTriangleILi1EEEE5scaleEd"
 "_ZN6atomic8TriangleINS_14nestedTriangleILi1EEEE7inverseEv"
 "_ZN6atomic8TriangleINS_14nestedTriangleILi1EEEEC1ERKS3_"
 "_ZN6atomic8TriangleINS_14nestedTriangleILi1EEEEC2ERKS3_"
 "_ZN6atomic8TriangleINS_14nestedTriangleILi1EEEED1Ev"
 "_ZN6atomic8TriangleINS_14nestedTriangleILi1EEEED2Ev"
 "_ZN6atomic8TriangleINS_14nestedTriangleILi1EEEEaSEOS3_"
 "_ZN6atomic8TriangleINS_14nestedTriangleILi1EEEEmIES3_"
 "_ZN6atomic8TriangleINS_14nestedTriangleILi1EEEEmlES3_"
 "_ZN6atomic8TriangleINS_14nestedTriangleILi1EEEEpLES3_"
 "_ZN6atomic8TriangleINS_14nestedTriangleILi2EEEE5scaleEd"
 "_ZN6atomic8TriangleINS_14nestedTriangleILi2EEEEC1ES2_S2_"
 "_ZN6atomic8TriangleINS_14nestedTriangleILi2EEEEmlES3_"
 "_ZN7density10rnorm_fillIN8tmbutils6vectorIdEEEEvRT_"
 "_ZN7density4GMRFIN5CppAD2ADINS2_INS2_IdEEEEEEEENS_6GMRF_tIT_EEN5Eigen12SparseMatrixIS7_Li0EiEEb"
 "_ZN7density4GMRFIN5CppAD2ADINS2_IdEEEEEENS_6GMRF_tIT_EEN5Eigen12SparseMatrixIS6_Li0EiEEb"
 "_ZN7density4GMRFIN5CppAD2ADIdEEEENS_6GMRF_tIT_EEN5Eigen12SparseMatrixIS5_Li0EiEEb"
 "_ZN7density4GMRFIdEENS_6GMRF_tIT_EEN5Eigen12SparseMatrixIS2_Li0EiEEb"
 "_ZN7density5SCALEIN5CppAD2ADINS2_INS2_IdEEEEEENS_6GMRF_tIS5_EEEENS_7SCALE_tIT0_EES9_T_"
 "_ZN7density5SCALEIN5CppAD2ADINS2_IdEEEENS_6GMRF_tIS4_EEEENS_7SCALE_tIT0_EES8_T_"
 "_ZN7density5SCALEIN5CppAD2ADIdEENS_6GMRF_tIS3_EEEENS_7SCALE_tIT0_EES7_T_"
 "_ZN7density5SCALEIdNS_6GMRF_tIdEEEENS_7SCALE_tIT0_EES4_T_"
 "_ZN7density6GMRF_tIN5CppAD2ADINS2_INS2_IdEEEEEEED1Ev"
 "_ZN7density6GMRF_tIN5CppAD2ADINS2_INS2_IdEEEEEEEclEN8tmbutils6vectorIS5_EE"
 "_ZN7density6GMRF_tIN5CppAD2ADINS2_IdEEEEED1Ev"
 "_ZN7density6GMRF_tIN5CppAD2ADINS2_IdEEEEEclEN8tmbutils6vectorIS4_EE"
 "_ZN7density6GMRF_tIN5CppAD2ADIdEEED1Ev"
 "_ZN7density6GMRF_tIN5CppAD2ADIdEEEclEN8tmbutils6vectorIS3_EE"
 "_ZN7density6GMRF_tIdE14sqrt_cov_scaleEN8tmbutils6vectorIdEE"
 "_ZN7density6GMRF_tIdE8simulateERN8tmbutils6vectorIdEE"
 "_ZN7density6GMRF_tIdEC1EN5Eigen12SparseMatrixIdLi0EiEEib"
 "_ZN7density6GMRF_tIdEC1ERKS1_"
 "_ZN7density6GMRF_tIdED1Ev"
 "_ZN7density6GMRF_tIdEclEN8tmbutils6vectorIdEE"
 "_ZN7density7SCALE_tINS_6GMRF_tIN5CppAD2ADINS3_INS3_IdEEEEEEEEEclEN8tmbutils5arrayIS6_EE"
 "_ZN7density7SCALE_tINS_6GMRF_tIN5CppAD2ADINS3_IdEEEEEEEclEN8tmbutils5arrayIS5_EE"
 "_ZN7density7SCALE_tINS_6GMRF_tIN5CppAD2ADIdEEEEEclEN8tmbutils5arrayIS4_EE"
 "_ZN7density7SCALE_tINS_6GMRF_tIdEEE8simulateERN8tmbutils6vectorIdEE"
 "_ZN7density7SCALE_tINS_6GMRF_tIdEEEclEN8tmbutils5arrayIdEE"
 "_ZN8RostreamILb0EED0Ev"
 "_ZN8RostreamILb0EED1Ev"
 "_ZN8RostreamILb1EED0Ev"
 "_ZN8RostreamILb1EED1Ev"
 "_ZN8tmbutils14asSparseMatrixIN5CppAD2ADINS2_INS2_IdEEEEEEEEN5Eigen12SparseMatrixIT_Li0EiEEP7SEXPREC"
 "_ZN8tmbutils14asSparseMatrixIN5CppAD2ADINS2_IdEEEEEEN5Eigen12SparseMatrixIT_Li0EiEEP7SEXPREC"
 "_ZN8tmbutils14asSparseMatrixIN5CppAD2ADIdEEEEN5Eigen12SparseMatrixIT_Li0EiEEP7SEXPREC"
 "_ZN8tmbutils14asSparseMatrixIdEEN5Eigen12SparseMatrixIT_Li0EiEEP7SEXPREC"
 "_ZN8tmbutils5arrayIN5CppAD2ADINS2_INS2_IdEEEEEEE3colEi"
 "_ZN8tmbutils5arrayIN5CppAD2ADINS2_INS2_IdEEEEEEE6setdimENS_6vectorIiEE"
 "_ZN8tmbutils5arrayIN5CppAD2ADINS2_INS2_IdEEEEEEEC1IS5_EERNS0_IT_EE"
 "_ZN8tmbutils5arrayIN5CppAD2ADINS2_INS2_IdEEEEEEED1Ev"
 "_ZN8tmbutils5arrayIN5CppAD2ADINS2_INS2_IdEEEEEEEclEii"
 "_ZN8tmbutils5arrayIN5CppAD2ADINS2_INS2_IdEEEEEEEclEiii"
 "_ZN8tmbutils5arrayIN5CppAD2ADINS2_IdEEEEE3colEi"
 "_ZN8tmbutils5arrayIN5CppAD2ADINS2_IdEEEEE6setdimENS_6vectorIiEE"
 "_ZN8tmbutils5arrayIN5CppAD2ADINS2_IdEEEEEC1IS4_EERNS0_IT_EE"
 "_ZN8tmbutils5arrayIN5CppAD2ADINS2_IdEEEEED1Ev"
 "_ZN8tmbutils5arrayIN5CppAD2ADINS2_IdEEEEEclEii"
 "_ZN8tmbutils5arrayIN5CppAD2ADINS2_IdEEEEEclEiii"
 "_ZN8tmbutils5arrayIN5CppAD2ADIdEEE3colEi"
 "_ZN8tmbutils5arrayIN5CppAD2ADIdEEE6setdimENS_6vectorIiEE"
 "_ZN8tmbutils5arrayIN5CppAD2ADIdEEEC1IS3_EERNS0_IT_EE"
 "_ZN8tmbutils5arrayIN5CppAD2ADIdEEED1Ev"
 "_ZN8tmbutils5arrayIN5CppAD2ADIdEEEclEii"
 "_ZN8tmbutils5arrayIN5CppAD2ADIdEEEclEiii"
 "_ZN8tmbutils5arrayIdE3colEi"
 "_ZN8tmbutils5arrayIdE6setdimENS_6vectorIiEE"
 "_ZN8tmbutils5arrayIdEC1IdEERNS0_IT_EE"
 "_ZN8tmbutils5arrayIdED1Ev"
 "_ZN8tmbutils5arrayIdEaSINS_6vectorIdEEEES1_T_"
 "_ZN8tmbutils5arrayIdEclEii"
 "_ZN8tmbutils5arrayIdEclEiii"
 "_ZN8tmbutils7asArrayIN5CppAD2ADINS2_INS2_IdEEEEEEEENS_5arrayIT_EEP7SEXPREC"
 "_ZN8tmbutils7asArrayIN5CppAD2ADINS2_IdEEEEEENS_5arrayIT_EEP7SEXPREC"
 "_ZN8tmbutils7asArrayIN5CppAD2ADIdEEEENS_5arrayIT_EEP7SEXPREC"
 "_ZN8tmbutils7asArrayIdEENS_5arrayIT_EEP7SEXPREC"
 "_ZN8tmbutils8asVectorIiiEENS_6vectorIT_EEPT0_i"
 "_ZN9barrier_q13fem_barrier_tIN5CppAD2ADINS2_INS2_IdEEEEEEEC1EP7SEXPREC"
 "_ZN9barrier_q13fem_barrier_tIN5CppAD2ADINS2_INS2_IdEEEEEEED1Ev"
 "_ZN9barrier_q13fem_barrier_tIN5CppAD2ADINS2_IdEEEEEC1EP7SEXPREC"
 "_ZN9barrier_q13fem_barrier_tIN5CppAD2ADINS2_IdEEEEED1Ev"
 "_ZN9barrier_q13fem_barrier_tIN5CppAD2ADIdEEEC1EP7SEXPREC"
 "_ZN9barrier_q13fem_barrier_tIN5CppAD2ADIdEEED1Ev"
 "_ZN9barrier_q13fem_barrier_tIdEC1EP7SEXPREC"
 "_ZN9barrier_q13fem_barrier_tIdED1Ev"
 "_ZN9barrier_q9Q_barrierIN5CppAD2ADINS2_INS2_IdEEEEEEEEN5Eigen12SparseMatrixIT_Li0EiEERNS_13fem_barrier_tIS8_EEN8tmbutils6vectorIS8_EES8_"
 "_ZN9barrier_q9Q_barrierIN5CppAD2ADINS2_IdEEEEEEN5Eigen12SparseMatrixIT_Li0EiEERNS_13fem_barrier_tIS7_EEN8tmbutils6vectorIS7_EES7_"
 "_ZN9barrier_q9Q_barrierIN5CppAD2ADIdEEEEN5Eigen12SparseMatrixIT_Li0EiEERNS_13fem_barrier_tIS6_EEN8tmbutils6vectorIS6_EES6_"
 "_ZN9barrier_q9Q_barrierIdEEN5Eigen12SparseMatrixIT_Li0EiEERNS_13fem_barrier_tIS3_EEN8tmbutils6vectorIS3_EES3_"
 "_ZNK5CppAD2ADINS0_INS0_IdEEEEE3expEv"
 "_ZNK5CppAD2ADINS0_INS0_IdEEEEE3logEv"
 "_ZNK5CppAD2ADINS0_INS0_IdEEEEE4sqrtEv"
 "_ZNK5CppAD2ADINS0_IdEEE3cosEv"
 "_ZNK5CppAD2ADINS0_IdEEE3expEv"
 "_ZNK5CppAD2ADINS0_IdEEE3logEv"
 "_ZNK5CppAD2ADINS0_IdEEE3sinEv"
 "_ZNK5CppAD2ADINS0_IdEEE3tanEv"
 "_ZNK5CppAD2ADINS0_IdEEE4SignEv"
 "_ZNK5CppAD2ADINS0_IdEEE4acosEv"
 "_ZNK5CppAD2ADINS0_IdEEE4asinEv"
 "_ZNK5CppAD2ADINS0_IdEEE4atanEv"
 "_ZNK5CppAD2ADINS0_IdEEE4coshEv"
 "_ZNK5CppAD2ADINS0_IdEEE4sinhEv"
 "_ZNK5CppAD2ADINS0_IdEEE4sqrtEv"
 "_ZNK5CppAD2ADINS0_IdEEE4tanhEv"
 "_ZNK5CppAD2ADIdE3AbsEv"
 "_ZNK5CppAD2ADIdE3cosEv"
 "_ZNK5CppAD2ADIdE3expEv"
 "_ZNK5CppAD2ADIdE3logEv"
 "_ZNK5CppAD2ADIdE3sinEv"
 "_ZNK5CppAD2ADIdE3tanEv"
 "_ZNK5CppAD2ADIdE4SignEv"
 "_ZNK5CppAD2ADIdE4acosEv"
 "_ZNK5CppAD2ADIdE4asinEv"
 "_ZNK5CppAD2ADIdE4atanEv"
 "_ZNK5CppAD2ADIdE4coshEv"
 "_ZNK5CppAD2ADIdE4sinhEv"
 "_ZNK5CppAD2ADIdE4sqrtEv"
 "_ZNK5CppAD2ADIdE4tanhEv"
 "_ZNK5Eigen20SparseCompressedBaseINS_12SparseMatrixIN5CppAD2ADINS3_INS3_IdEEEEEELi0EiEEE8nonZerosEv"
 "_ZNK5Eigen20SparseCompressedBaseINS_12SparseMatrixIN5CppAD2ADINS3_IdEEEELi0EiEEE8nonZerosEv"
 "_ZNK5Eigen20SparseCompressedBaseINS_12SparseMatrixIN5CppAD2ADIdEELi0EiEEE8nonZerosEv"
 "_ZNK5Eigen20SparseCompressedBaseINS_12SparseMatrixIdLi0EiEEE8nonZerosEv"
 "_ZNK5Eigen8internal28sparse_conjunction_evaluatorINS_13CwiseBinaryOpINS0_17scalar_product_opIN5CppAD2ADINS5_INS5_IdEEEEEES8_EEKNS_14CwiseNullaryOpINS0_18scalar_constant_opIS8_EEKNS_6MatrixIS8_Lin1ELin1ELi0ELin1ELin1EEEEEKNS_12SparseMatrixIS8_Li0EiEEEENS0_10IndexBasedENS0_13IteratorBasedES8_S8_E13InnerIterator5valueEv"
 "_ZNK5Eigen8internal28sparse_conjunction_evaluatorINS_13CwiseBinaryOpINS0_17scalar_product_opIN5CppAD2ADINS5_IdEEEES7_EEKNS_14CwiseNullaryOpINS0_18scalar_constant_opIS7_EEKNS_6MatrixIS7_Lin1ELin1ELi0ELin1ELin1EEEEEKNS_12SparseMatrixIS7_Li0EiEEEENS0_10IndexBasedENS0_13IteratorBasedES7_S7_E13InnerIterator5valueEv"
 "_ZNSt11_Deque_baseIN5CppAD8optimize20struct_csum_variableESaIS2_EED2Ev"
 "_ZNSt11_Deque_baseIySaIyEE17_M_initialize_mapEy"
 "_ZNSt11_Deque_baseIySaIyEED2Ev"
 "_ZNSt5dequeIN5CppAD8optimize20struct_csum_variableESaIS2_EE16_M_push_back_auxIJRKS2_EEEvDpOT_"
 "_ZNSt5dequeIySaIyEE16_M_push_back_auxIJyEEEvDpOT_"
 "_ZNSt6vectorIN5Eigen7TripletIN5CppAD2ADINS3_INS3_IdEEEEEEiEESaIS7_EE17_M_realloc_insertIJS7_EEEvN9__gnu_cxx17__normal_iteratorIPS7_S9_EEDpOT_"
 "_ZNSt6vectorIN5Eigen7TripletIN5CppAD2ADINS3_IdEEEEiEESaIS6_EE17_M_realloc_insertIJS6_EEEvN9__gnu_cxx17__normal_iteratorIPS6_S8_EEDpOT_"
 "_ZNSt6vectorIN5Eigen7TripletIN5CppAD2ADIdEEiEESaIS5_EE17_M_realloc_insertIJS5_EEEvN9__gnu_cxx17__normal_iteratorIPS5_S7_EEDpOT_"
 "_ZNSt6vectorIN5Eigen7TripletIdiEESaIS2_EE17_M_realloc_insertIJS2_EEEvN9__gnu_cxx17__normal_iteratorIPS2_S4_EEDpOT_"
 "_ZNSt6vectorINSt7__cxx1112basic_stringIcSt11char_traitsIcESaIcEEESaIS5_EE17_M_realloc_insertIJRKS5_EEEvN9__gnu_cxx17__normal_iteratorIPS5_S7_EEDpOT_"
 "_ZNSt6vectorIPN5CppAD11atomic_baseINS0_2ADINS2_IdEEEEEESaIS6_EE17_M_realloc_insertIJS6_EEEvN9__gnu_cxx17__normal_iteratorIPS6_S8_EEDpOT_"
 "_ZNSt6vectorIPN5CppAD11atomic_baseINS0_2ADIdEEEESaIS5_EE17_M_realloc_insertIJS5_EEEvN9__gnu_cxx17__normal_iteratorIPS5_S7_EEDpOT_"
 "_ZNSt6vectorIPN5CppAD11atomic_baseIdEESaIS3_EE17_M_realloc_insertIJS3_EEEvN9__gnu_cxx17__normal_iteratorIPS3_S5_EEDpOT_"
 "_ZNSt6vectorIySaIyEE17_M_realloc_insertIJRKyEEEvN9__gnu_cxx17__normal_iteratorIPyS1_EEDpOT_"
 "_ZNSt7__cxx1112basic_stringIcSt11char_traitsIcESaIcEE12_M_constructIPKcEEvT_S8_St20forward_iterator_tag"
 "_ZNSt7__cxx1112basic_stringIcSt11char_traitsIcESaIcEE12_M_constructIPcEEvT_S7_St20forward_iterator_tag"
 "_ZNSt8_Rb_treeIN5CppAD8optimize15class_cexp_pairES2_St9_IdentityIS2_ESt4lessIS2_ESaIS2_EE24_M_get_insert_unique_posERKS2_"
 "_ZNSt8_Rb_treeIN5CppAD8optimize15class_cexp_pairES2_St9_IdentityIS2_ESt4lessIS2_ESaIS2_EE7_M_copyINS8_20_Reuse_or_alloc_nodeEEEPSt13_Rb_tree_nodeIS2_EPKSC_PSt18_Rb_tree_node_baseRT_"
 "_ZNSt8_Rb_treeIN5CppAD8optimize15class_cexp_pairES2_St9_IdentityIS2_ESt4lessIS2_ESaIS2_EE8_M_eraseEPSt13_Rb_tree_nodeIS2_E"
 "_ZNSt8_Rb_treeIN5CppAD8optimize15class_cexp_pairES2_St9_IdentityIS2_ESt4lessIS2_ESaIS2_EEaSERKS8_"
 "_ZNSt8_Rb_treeIP7SEXPRECS1_St9_IdentityIS1_ESt4lessIS1_ESaIS1_EE16_M_insert_uniqueIRKS1_EESt4pairISt17_Rb_tree_iteratorIS1_EbEOT_"
 "_ZNSt8_Rb_treeIP7SEXPRECS1_St9_IdentityIS1_ESt4lessIS1_ESaIS1_EE5eraseERKS1_"
 "_ZNSt8_Rb_treeIP7SEXPRECS1_St9_IdentityIS1_ESt4lessIS1_ESaIS1_EE8_M_eraseEPSt13_Rb_tree_nodeIS1_E"
 "_ZNSt8_Rb_treeIyySt9_IdentityIyESt4lessIyESaIyEE16_M_insert_uniqueIRKyEESt4pairISt17_Rb_tree_iteratorIyEbEOT_"
 "_ZNSt8_Rb_treeIyySt9_IdentityIyESt4lessIyESaIyEE16_M_insert_uniqueIyEESt4pairISt17_Rb_tree_iteratorIyEbEOT_"
 "_ZNSt8_Rb_treeIyySt9_IdentityIyESt4lessIyESaIyEE24_M_get_insert_unique_posERKy"
 "_ZNSt8_Rb_treeIyySt9_IdentityIyESt4lessIyESaIyEE8_M_eraseEPSt13_Rb_tree_nodeIyE"
 "_ZSt13__adjust_heapIN9__gnu_cxx17__normal_iteratorIPySt6vectorIySaIyEEEExyNS0_5__ops15_Iter_less_iterEEvT_T0_SA_T1_T2_"
 "_ZSt13__adjust_heapIPN5CppAD18index_sort_elementIyEExS2_N9__gnu_cxx5__ops15_Iter_less_iterEEvT_T0_S8_T1_T2_"
 "_ZSt13__adjust_heapIPxxxN9__gnu_cxx5__ops15_Iter_less_iterEEvT_T0_S5_T1_T2_"
 "_ZSt16__insertion_sortIN9__gnu_cxx17__normal_iteratorIPySt6vectorIySaIyEEEENS0_5__ops15_Iter_less_iterEEvT_S9_T0_"
 "_ZSt16__insertion_sortIPN5CppAD18index_sort_elementIyEEN9__gnu_cxx5__ops15_Iter_less_iterEEvT_S7_T0_"
 "_ZSt16__insertion_sortIPxN9__gnu_cxx5__ops15_Iter_less_iterEEvT_S4_T0_"
 "_ZSt16__introsort_loopIN9__gnu_cxx17__normal_iteratorIPySt6vectorIySaIyEEEExNS0_5__ops15_Iter_less_iterEEvT_S9_T0_T1_"
 "_ZSt18__set_intersectionISt23_Rb_tree_const_iteratorIN5CppAD8optimize15class_cexp_pairEES4_St15insert_iteratorISt3setIS3_St4lessIS3_ESaIS3_EEEN9__gnu_cxx5__ops15_Iter_less_iterEET1_T_SG_T0_SH_SF_T2_"
 "_ZTC8RostreamILb0EE0_So"
 "_ZTC8RostreamILb1EE0_So"
 "_ZTI10RstreambufILb0EE"
 "_ZTI10RstreambufILb1EE"
 "_ZTI8RostreamILb0EE"
 "_ZTI8RostreamILb1EE"
 "_ZTIN5CppAD11atomic_baseINS_2ADINS1_IdEEEEEE"
 "_ZTIN5CppAD11atomic_baseINS_2ADIdEEEE"
 "_ZTIN5CppAD11atomic_baseIdEE"
 "_ZTIN6atomic14atomicD_lgammaIN5CppAD2ADINS2_IdEEEEEE"
 "_ZTIN6atomic14atomicD_lgammaIN5CppAD2ADIdEEEE"
 "_ZTIN6atomic14atomicD_lgammaIdEE"
 "_ZTIN6atomic23atomiclog_dbinom_robustIN5CppAD2ADINS2_IdEEEEEE"
 "_ZTIN6atomic23atomiclog_dbinom_robustIN5CppAD2ADIdEEEE"
 "_ZTIN6atomic23atomiclog_dbinom_robustIdEE"
 "_ZTISt9bad_alloc"
 "_ZTISt9exception"
 "_ZTS10RstreambufILb0EE"
 "_ZTS10RstreambufILb1EE"
 "_ZTS8RostreamILb0EE"
 "_ZTS8RostreamILb1EE"
 "_ZTSN5CppAD11atomic_baseINS_2ADINS1_IdEEEEEE"
 "_ZTSN5CppAD11atomic_baseINS_2ADIdEEEE"
 "_ZTSN5CppAD11atomic_baseIdEE"
 "_ZTSN6atomic14atomicD_lgammaIN5CppAD2ADINS2_IdEEEEEE"
 "_ZTSN6atomic14atomicD_lgammaIN5CppAD2ADIdEEEE"
 "_ZTSN6atomic14atomicD_lgammaIdEE"
 "_ZTSN6atomic23atomiclog_dbinom_robustIN5CppAD2ADINS2_IdEEEEEE"
 "_ZTSN6atomic23atomiclog_dbinom_robustIN5CppAD2ADIdEEEE"
 "_ZTSN6atomic23atomiclog_dbinom_robustIdEE"
 "_ZTSSt9bad_alloc"
 "_ZTSSt9exception"
 "_ZTT8RostreamILb0EE"
 "_ZTT8RostreamILb1EE"
 "_ZTV10RstreambufILb0EE"
 "_ZTV10RstreambufILb1EE"
 "_ZTV8RostreamILb0EE"
 "_ZTV8RostreamILb1EE"
 "_ZTVN5CppAD11atomic_baseINS_2ADINS1_IdEEEEEE"
 "_ZTVN5CppAD11atomic_baseINS_2ADIdEEEE"
 "_ZTVN5CppAD11atomic_baseIdEE"
 "_ZTVN6atomic14atomicD_lgammaIN5CppAD2ADINS2_IdEEEEEE"
 "_ZTVN6atomic14atomicD_lgammaIN5CppAD2ADIdEEEE"
 "_ZTVN6atomic14atomicD_lgammaIdEE"
 "_ZTVN6atomic23atomiclog_dbinom_robustIN5CppAD2ADINS2_IdEEEEEE"
 "_ZTVN6atomic23atomiclog_dbinom_robustIN5CppAD2ADIdEEEE"
 "_ZTVN6atomic23atomiclog_dbinom_robustIdEE"
 "_ZTv0_n24_N8RostreamILb0EED0Ev"
 "_ZTv0_n24_N8RostreamILb0EED1Ev"
 "_ZTv0_n24_N8RostreamILb1EED0Ev"
 "_ZTv0_n24_N8RostreamILb1EED1Ev"
 "_ZZN5CppAD11atomic_baseINS_2ADINS1_IdEEEEE10class_nameB5cxx11EvE5list_"
 "_ZZN5CppAD11atomic_baseINS_2ADINS1_IdEEEEE12class_objectEvE5list_"
 "_ZZN5CppAD11atomic_baseINS_2ADIdEEE10class_nameB5cxx11EvE5list_"
 "_ZZN5CppAD11atomic_baseINS_2ADIdEEE12class_objectEvE5list_"
 "_ZZN5CppAD11atomic_baseIdE10class_nameB5cxx11EvE5list_"
 "_ZZN5CppAD11atomic_baseIdE12class_objectEvE5list_"
 "_ZZN5CppAD11sparse_pack11add_elementEyyE3one"
 "_ZZN5CppAD11sparse_pack12next_elementEvE3one"
 "_ZZN5CppAD11sparse_pack5clearEyE4zero"
 "_ZZN5CppAD12thread_alloc11thread_infoEybE8all_info"
 "_ZZN5CppAD12thread_alloc11thread_infoEybE9zero_info"
 "_ZZN5CppAD12thread_alloc13capacity_infoEvE8capacity"
 "_ZZN5CppAD12thread_alloc18set_get_thread_numEPFyvEbE15thread_num_user"
 "_ZZN5CppAD12thread_alloc19set_get_hold_memoryEbbE5value"
 "_ZZN5CppAD2ADINS0_INS0_IdEEEEE11tape_handleEyE10tape_table"
 "_ZZN5CppAD2ADINS0_INS0_IdEEEEE11tape_manageENS_15tape_manage_jobEE10tape_table"
 "_ZZN5CppAD2ADINS0_INS0_IdEEEEE11tape_manageENS_15tape_manage_jobEE12tape_id_save"
 "_ZZN5CppAD2ADINS0_INS0_IdEEEEE11tape_manageENS_15tape_manage_jobEE9tape_zero"
 "_ZZN5CppAD2ADINS0_INS0_IdEEEEE14tape_id_handleEyE13tape_id_table"
 "_ZZN5CppAD2ADINS0_IdEEE11tape_handleEyE10tape_table"
 "_ZZN5CppAD2ADINS0_IdEEE11tape_manageENS_15tape_manage_jobEE10tape_table"
 "_ZZN5CppAD2ADINS0_IdEEE11tape_manageENS_15tape_manage_jobEE12tape_id_save"
 "_ZZN5CppAD2ADINS0_IdEEE11tape_manageENS_15tape_manage_jobEE9tape_zero"
 "_ZZN5CppAD2ADINS0_IdEEE14tape_id_handleEyE13tape_id_table"
 "_ZZN5CppAD2ADIdE11tape_handleEyE10tape_table"
 "_ZZN5CppAD2ADIdE11tape_manageENS_15tape_manage_jobEE10tape_table"
 "_ZZN5CppAD2ADIdE11tape_manageENS_15tape_manage_jobEE12tape_id_save"
 "_ZZN5CppAD2ADIdE11tape_manageENS_15tape_manage_jobEE9tape_zero"
 "_ZZN5CppAD2ADIdE14tape_id_handleEyE13tape_id_table"
 "_ZZN5CppAD6NumArgENS_6OpCodeEE11NumArgTable"
 "_ZZN5CppAD6NumResENS_6OpCodeEE11NumResTable"
 "_ZZN5CppAD8discreteINS_2ADINS1_IdEEEEE4ListEvE4list"
 "_ZZN5CppAD8discreteINS_2ADIdEEE4ListEvE4list"
 "_ZZN5CppAD8discreteIdE4ListEvE4list"
 "_ZZN5CppAD8recorderINS_2ADINS1_IdEEEEE6PutParERKS3_E10hash_table"
 "_ZZN5CppAD8recorderINS_2ADIdEEE6PutParERKS2_E10hash_table"
 "_ZZN5CppAD8recorderIdE6PutParERKdE10hash_table"
 "_ZZN5Eigen6numext4log2EiE5table"
 "_ZZN5Eigen8internal20manage_caching_sizesENS_6ActionEPxS2_S2_E12m_cacheSizes"
 "_ZZN6atomic17log_dbinom_robustIN5CppAD2ADINS2_IdEEEEEEvRKNS1_6vectorINS2_IT_EEEERS8_E21afunlog_dbinom_robust"
 "_ZZN6atomic17log_dbinom_robustIN5CppAD2ADIdEEEEvRKNS1_6vectorINS2_IT_EEEERS7_E21afunlog_dbinom_robust"
 "_ZZN6atomic17log_dbinom_robustIdEEvRKN5CppAD6vectorINS1_2ADIT_EEEERS6_E21afunlog_dbinom_robust"
 "_ZZN6atomic8D_lgammaIN5CppAD2ADINS2_IdEEEEEEvRKNS1_6vectorINS2_IT_EEEERS8_E12afunD_lgamma"
 "_ZZN6atomic8D_lgammaIN5CppAD2ADIdEEEEvRKNS1_6vectorINS2_IT_EEEERS7_E12afunD_lgamma"
 "_ZZN6atomic8D_lgammaIdEEvRKN5CppAD6vectorINS1_2ADIT_EEEERS6_E12afunD_lgamma"
 "_openmp"
 "config"
 "finalizeADFun"
 "finalizeDoubleFun"
 "finalizeparallelADFun"
 "getParameterOrder"
 "getTag"
 "memory_manager"
 "optimizeADFunObject"
 "tmb_forward"
 "tmb_reverse"
 "usingAtomics"
